
LandCruiser-Controller_SW.elf:     file format elf32-avr

Sections:
Idx Name          Size      VMA       LMA       File off  Algn
  0 .data         00000002  00800100  00001b2e  00001bc2  2**0
                  CONTENTS, ALLOC, LOAD, DATA
  1 .text         00001b2e  00000000  00000000  00000094  2**1
                  CONTENTS, ALLOC, LOAD, READONLY, CODE
  2 .bss          0000007e  00800102  00800102  00001bc4  2**0
                  ALLOC
  3 .comment      00000030  00000000  00000000  00001bc4  2**0
                  CONTENTS, READONLY
  4 .note.gnu.avr.deviceinfo 00000040  00000000  00000000  00001bf4  2**2
                  CONTENTS, READONLY
  5 .debug_aranges 00000040  00000000  00000000  00001c38  2**3
                  CONTENTS, READONLY, DEBUGGING
  6 .debug_info   0000074c  00000000  00000000  00001c78  2**0
                  CONTENTS, READONLY, DEBUGGING
  7 .debug_abbrev 000005ca  00000000  00000000  000023c4  2**0
                  CONTENTS, READONLY, DEBUGGING
  8 .debug_line   0000024b  00000000  00000000  0000298e  2**0
                  CONTENTS, READONLY, DEBUGGING
  9 .debug_str    00000208  00000000  00000000  00002bd9  2**0
                  CONTENTS, READONLY, DEBUGGING

Disassembly of section .text:

00000000 <__vectors>:
       0:	33 c0       	rjmp	.+102    	; 0x68 <__ctors_end>
       2:	00 00       	nop
       4:	1d c5       	rjmp	.+2618   	; 0xa40 <__vector_1>
       6:	00 00       	nop
       8:	f8 c4       	rjmp	.+2544   	; 0x9fa <__vector_2>
       a:	00 00       	nop
       c:	d3 c4       	rjmp	.+2470   	; 0x9b4 <__vector_3>
       e:	00 00       	nop
      10:	4b c0       	rjmp	.+150    	; 0xa8 <__vector_4>
      12:	00 00       	nop
      14:	ac c4       	rjmp	.+2392   	; 0x96e <__vector_5>
      16:	00 00       	nop
      18:	87 c4       	rjmp	.+2318   	; 0x928 <__vector_6>
      1a:	00 00       	nop
      1c:	62 c4       	rjmp	.+2244   	; 0x8e2 <__vector_7>
      1e:	00 00       	nop
      20:	3d c4       	rjmp	.+2170   	; 0x89c <__vector_8>
      22:	00 00       	nop
      24:	18 c4       	rjmp	.+2096   	; 0x856 <__vector_9>
      26:	00 00       	nop
      28:	f3 c3       	rjmp	.+2022   	; 0x810 <__vector_10>
      2a:	00 00       	nop
      2c:	ce c3       	rjmp	.+1948   	; 0x7ca <__vector_11>
      2e:	00 00       	nop
      30:	a9 c3       	rjmp	.+1874   	; 0x784 <__vector_12>
      32:	00 00       	nop
      34:	a8 c0       	rjmp	.+336    	; 0x186 <__vector_13>
      36:	00 00       	nop
      38:	82 c3       	rjmp	.+1796   	; 0x73e <__vector_14>
      3a:	00 00       	nop
      3c:	5d c3       	rjmp	.+1722   	; 0x6f8 <__vector_15>
      3e:	00 00       	nop
      40:	38 c3       	rjmp	.+1648   	; 0x6b2 <__vector_16>
      42:	00 00       	nop
      44:	13 c3       	rjmp	.+1574   	; 0x66c <__vector_17>
      46:	00 00       	nop
      48:	ee c2       	rjmp	.+1500   	; 0x626 <__vector_18>
      4a:	00 00       	nop
      4c:	c9 c2       	rjmp	.+1426   	; 0x5e0 <__vector_19>
      4e:	00 00       	nop
      50:	a4 c2       	rjmp	.+1352   	; 0x59a <__vector_20>
      52:	00 00       	nop
      54:	d7 c0       	rjmp	.+430    	; 0x204 <__vector_21>
      56:	00 00       	nop
      58:	7d c2       	rjmp	.+1274   	; 0x554 <__vector_22>
      5a:	00 00       	nop
      5c:	58 c2       	rjmp	.+1200   	; 0x50e <__vector_23>
      5e:	00 00       	nop
      60:	33 c2       	rjmp	.+1126   	; 0x4c8 <__vector_24>
      62:	00 00       	nop
      64:	0e c2       	rjmp	.+1052   	; 0x482 <__vector_25>
	...

00000068 <__ctors_end>:
      68:	11 24       	eor	r1, r1
      6a:	1f be       	out	0x3f, r1	; 63
      6c:	cf ef       	ldi	r28, 0xFF	; 255
      6e:	d8 e0       	ldi	r29, 0x08	; 8
      70:	de bf       	out	0x3e, r29	; 62
      72:	cd bf       	out	0x3d, r28	; 61

00000074 <__do_copy_data>:
      74:	11 e0       	ldi	r17, 0x01	; 1
      76:	a0 e0       	ldi	r26, 0x00	; 0
      78:	b1 e0       	ldi	r27, 0x01	; 1
      7a:	ee e2       	ldi	r30, 0x2E	; 46
      7c:	fb e1       	ldi	r31, 0x1B	; 27
      7e:	02 c0       	rjmp	.+4      	; 0x84 <__do_copy_data+0x10>
      80:	05 90       	lpm	r0, Z+
      82:	0d 92       	st	X+, r0
      84:	a2 30       	cpi	r26, 0x02	; 2
      86:	b1 07       	cpc	r27, r17
      88:	d9 f7       	brne	.-10     	; 0x80 <__do_copy_data+0xc>

0000008a <__do_clear_bss>:
      8a:	21 e0       	ldi	r18, 0x01	; 1
      8c:	a2 e0       	ldi	r26, 0x02	; 2
      8e:	b1 e0       	ldi	r27, 0x01	; 1
      90:	01 c0       	rjmp	.+2      	; 0x94 <.do_clear_bss_start>

00000092 <.do_clear_bss_loop>:
      92:	1d 92       	st	X+, r1

00000094 <.do_clear_bss_start>:
      94:	a0 38       	cpi	r26, 0x80	; 128
      96:	b2 07       	cpc	r27, r18
      98:	e1 f7       	brne	.-8      	; 0x92 <.do_clear_bss_loop>
      9a:	0e 94 7a 0a 	call	0x14f4	; 0x14f4 <main>
      9e:	0c 94 95 0d 	jmp	0x1b2a	; 0x1b2a <_exit>

000000a2 <asm_break>:
      a2:	98 95       	break
      a4:	00 00       	nop
      a6:	08 95       	ret

000000a8 <__vector_4>:
      a8:	1f 92       	push	r1
      aa:	0f 92       	push	r0
      ac:	0f b6       	in	r0, 0x3f	; 63
      ae:	0f 92       	push	r0
      b0:	11 24       	eor	r1, r1
      b2:	af 92       	push	r10
      b4:	bf 92       	push	r11
      b6:	cf 92       	push	r12
      b8:	df 92       	push	r13
      ba:	ef 92       	push	r14
      bc:	ff 92       	push	r15
      be:	0f 93       	push	r16
      c0:	1f 93       	push	r17
      c2:	2f 93       	push	r18
      c4:	3f 93       	push	r19
      c6:	4f 93       	push	r20
      c8:	5f 93       	push	r21
      ca:	6f 93       	push	r22
      cc:	7f 93       	push	r23
      ce:	8f 93       	push	r24
      d0:	9f 93       	push	r25
      d2:	af 93       	push	r26
      d4:	bf 93       	push	r27
      d6:	ef 93       	push	r30
      d8:	ff 93       	push	r31
      da:	32 9b       	sbis	0x06, 2	; 6
      dc:	3b c0       	rjmp	.+118    	; 0x154 <__vector_4+0xac>
      de:	f0 91 78 01 	lds	r31, 0x0178	; 0x800178 <g_timer_abs_msb>
      e2:	e0 91 79 01 	lds	r30, 0x0179	; 0x800179 <g_timer_abs_msb+0x1>
      e6:	8f 2f       	mov	r24, r31
      e8:	9e 2f       	mov	r25, r30
      ea:	89 2b       	or	r24, r25
      ec:	99 f1       	breq	.+102    	; 0x154 <__vector_4+0xac>
      ee:	2f 2f       	mov	r18, r31
      f0:	3e 2f       	mov	r19, r30
      f2:	40 e0       	ldi	r20, 0x00	; 0
      f4:	50 e0       	ldi	r21, 0x00	; 0
      f6:	60 e0       	ldi	r22, 0x00	; 0
      f8:	70 e0       	ldi	r23, 0x00	; 0
      fa:	80 e0       	ldi	r24, 0x00	; 0
      fc:	90 e0       	ldi	r25, 0x00	; 0
      fe:	a0 90 02 01 	lds	r10, 0x0102	; 0x800102 <__data_end>
     102:	b0 90 03 01 	lds	r11, 0x0103	; 0x800103 <__data_end+0x1>
     106:	c0 90 04 01 	lds	r12, 0x0104	; 0x800104 <__data_end+0x2>
     10a:	d0 90 05 01 	lds	r13, 0x0105	; 0x800105 <__data_end+0x3>
     10e:	e0 90 06 01 	lds	r14, 0x0106	; 0x800106 <__data_end+0x4>
     112:	f0 90 07 01 	lds	r15, 0x0107	; 0x800107 <__data_end+0x5>
     116:	00 91 08 01 	lds	r16, 0x0108	; 0x800108 <__data_end+0x6>
     11a:	10 91 09 01 	lds	r17, 0x0109	; 0x800109 <__data_end+0x7>
     11e:	0e 94 61 0d 	call	0x1ac2	; 0x1ac2 <__subdi3>
     122:	b1 e0       	ldi	r27, 0x01	; 1
     124:	a4 e6       	ldi	r26, 0x64	; 100
     126:	0e 94 73 0d 	call	0x1ae6	; 0x1ae6 <__cmpdi2_s8>
     12a:	11 f0       	breq	.+4      	; 0x130 <__vector_4+0x88>
     12c:	08 f0       	brcs	.+2      	; 0x130 <__vector_4+0x88>
     12e:	b0 e0       	ldi	r27, 0x00	; 0
     130:	b0 93 67 01 	sts	0x0167, r27	; 0x800167 <g_speed_over>
     134:	f0 93 02 01 	sts	0x0102, r31	; 0x800102 <__data_end>
     138:	e0 93 03 01 	sts	0x0103, r30	; 0x800103 <__data_end+0x1>
     13c:	10 92 04 01 	sts	0x0104, r1	; 0x800104 <__data_end+0x2>
     140:	10 92 05 01 	sts	0x0105, r1	; 0x800105 <__data_end+0x3>
     144:	10 92 06 01 	sts	0x0106, r1	; 0x800106 <__data_end+0x4>
     148:	10 92 07 01 	sts	0x0107, r1	; 0x800107 <__data_end+0x5>
     14c:	10 92 08 01 	sts	0x0108, r1	; 0x800108 <__data_end+0x6>
     150:	10 92 09 01 	sts	0x0109, r1	; 0x800109 <__data_end+0x7>
     154:	ff 91       	pop	r31
     156:	ef 91       	pop	r30
     158:	bf 91       	pop	r27
     15a:	af 91       	pop	r26
     15c:	9f 91       	pop	r25
     15e:	8f 91       	pop	r24
     160:	7f 91       	pop	r23
     162:	6f 91       	pop	r22
     164:	5f 91       	pop	r21
     166:	4f 91       	pop	r20
     168:	3f 91       	pop	r19
     16a:	2f 91       	pop	r18
     16c:	1f 91       	pop	r17
     16e:	0f 91       	pop	r16
     170:	ff 90       	pop	r15
     172:	ef 90       	pop	r14
     174:	df 90       	pop	r13
     176:	cf 90       	pop	r12
     178:	bf 90       	pop	r11
     17a:	af 90       	pop	r10
     17c:	0f 90       	pop	r0
     17e:	0f be       	out	0x3f, r0	; 63
     180:	0f 90       	pop	r0
     182:	1f 90       	pop	r1
     184:	18 95       	reti

00000186 <__vector_13>:
     186:	1f 92       	push	r1
     188:	0f 92       	push	r0
     18a:	0f b6       	in	r0, 0x3f	; 63
     18c:	0f 92       	push	r0
     18e:	11 24       	eor	r1, r1
     190:	2f 93       	push	r18
     192:	3f 93       	push	r19
     194:	4f 93       	push	r20
     196:	5f 93       	push	r21
     198:	6f 93       	push	r22
     19a:	7f 93       	push	r23
     19c:	8f 93       	push	r24
     19e:	9f 93       	push	r25
     1a0:	af 93       	push	r26
     1a2:	20 91 78 01 	lds	r18, 0x0178	; 0x800178 <g_timer_abs_msb>
     1a6:	30 91 79 01 	lds	r19, 0x0179	; 0x800179 <g_timer_abs_msb+0x1>
     1aa:	40 91 7a 01 	lds	r20, 0x017A	; 0x80017a <g_timer_abs_msb+0x2>
     1ae:	50 91 7b 01 	lds	r21, 0x017B	; 0x80017b <g_timer_abs_msb+0x3>
     1b2:	60 91 7c 01 	lds	r22, 0x017C	; 0x80017c <g_timer_abs_msb+0x4>
     1b6:	70 91 7d 01 	lds	r23, 0x017D	; 0x80017d <g_timer_abs_msb+0x5>
     1ba:	80 91 7e 01 	lds	r24, 0x017E	; 0x80017e <g_timer_abs_msb+0x6>
     1be:	90 91 7f 01 	lds	r25, 0x017F	; 0x80017f <g_timer_abs_msb+0x7>
     1c2:	a1 e0       	ldi	r26, 0x01	; 1
     1c4:	0e 94 55 0d 	call	0x1aaa	; 0x1aaa <__adddi3_s8>
     1c8:	20 93 78 01 	sts	0x0178, r18	; 0x800178 <g_timer_abs_msb>
     1cc:	30 93 79 01 	sts	0x0179, r19	; 0x800179 <g_timer_abs_msb+0x1>
     1d0:	40 93 7a 01 	sts	0x017A, r20	; 0x80017a <g_timer_abs_msb+0x2>
     1d4:	50 93 7b 01 	sts	0x017B, r21	; 0x80017b <g_timer_abs_msb+0x3>
     1d8:	60 93 7c 01 	sts	0x017C, r22	; 0x80017c <g_timer_abs_msb+0x4>
     1dc:	70 93 7d 01 	sts	0x017D, r23	; 0x80017d <g_timer_abs_msb+0x5>
     1e0:	80 93 7e 01 	sts	0x017E, r24	; 0x80017e <g_timer_abs_msb+0x6>
     1e4:	90 93 7f 01 	sts	0x017F, r25	; 0x80017f <g_timer_abs_msb+0x7>
     1e8:	af 91       	pop	r26
     1ea:	9f 91       	pop	r25
     1ec:	8f 91       	pop	r24
     1ee:	7f 91       	pop	r23
     1f0:	6f 91       	pop	r22
     1f2:	5f 91       	pop	r21
     1f4:	4f 91       	pop	r20
     1f6:	3f 91       	pop	r19
     1f8:	2f 91       	pop	r18
     1fa:	0f 90       	pop	r0
     1fc:	0f be       	out	0x3f, r0	; 63
     1fe:	0f 90       	pop	r0
     200:	1f 90       	pop	r1
     202:	18 95       	reti

00000204 <__vector_21>:
     204:	1f 92       	push	r1
     206:	0f 92       	push	r0
     208:	0f b6       	in	r0, 0x3f	; 63
     20a:	0f 92       	push	r0
     20c:	11 24       	eor	r1, r1
     20e:	8f 92       	push	r8
     210:	9f 92       	push	r9
     212:	af 92       	push	r10
     214:	bf 92       	push	r11
     216:	cf 92       	push	r12
     218:	df 92       	push	r13
     21a:	ef 92       	push	r14
     21c:	ff 92       	push	r15
     21e:	2f 93       	push	r18
     220:	3f 93       	push	r19
     222:	4f 93       	push	r20
     224:	5f 93       	push	r21
     226:	6f 93       	push	r22
     228:	7f 93       	push	r23
     22a:	8f 93       	push	r24
     22c:	9f 93       	push	r25
     22e:	af 93       	push	r26
     230:	bf 93       	push	r27
     232:	cf 93       	push	r28
     234:	df 93       	push	r29
     236:	ef 93       	push	r30
     238:	ff 93       	push	r31
     23a:	40 91 78 00 	lds	r20, 0x0078	; 0x800078 <__TEXT_REGION_LENGTH__+0x7e0078>
     23e:	80 91 79 00 	lds	r24, 0x0079	; 0x800079 <__TEXT_REGION_LENGTH__+0x7e0079>
     242:	50 e0       	ldi	r21, 0x00	; 0
     244:	58 2b       	or	r21, r24
     246:	80 91 77 01 	lds	r24, 0x0177	; 0x800177 <g_adc_state>
     24a:	4d 33       	cpi	r20, 0x3D	; 61
     24c:	51 05       	cpc	r21, r1
     24e:	18 f0       	brcs	.+6      	; 0x256 <__vector_21+0x52>
     250:	ea 01       	movw	r28, r20
     252:	ec 97       	sbiw	r28, 0x3c	; 60
     254:	02 c0       	rjmp	.+4      	; 0x25a <__vector_21+0x56>
     256:	c0 e0       	ldi	r28, 0x00	; 0
     258:	d0 e0       	ldi	r29, 0x00	; 0
     25a:	90 91 00 01 	lds	r25, 0x0100	; 0x800100 <__data_start>
     25e:	9f 5f       	subi	r25, 0xFF	; 255
     260:	90 93 00 01 	sts	0x0100, r25	; 0x800100 <__data_start>
     264:	94 36       	cpi	r25, 0x64	; 100
     266:	28 f0       	brcs	.+10     	; 0x272 <__vector_21+0x6e>
     268:	10 92 00 01 	sts	0x0100, r1	; 0x800100 <__data_start>
     26c:	82 30       	cpi	r24, 0x02	; 2
     26e:	19 f4       	brne	.+6      	; 0x276 <__vector_21+0x72>
     270:	14 c0       	rjmp	.+40     	; 0x29a <__vector_21+0x96>
     272:	82 30       	cpi	r24, 0x02	; 2
     274:	81 f0       	breq	.+32     	; 0x296 <__vector_21+0x92>
     276:	83 30       	cpi	r24, 0x03	; 3
     278:	38 f4       	brcc	.+14     	; 0x288 <__vector_21+0x84>
     27a:	81 30       	cpi	r24, 0x01	; 1
     27c:	09 f0       	breq	.+2      	; 0x280 <__vector_21+0x7c>
     27e:	e0 c0       	rjmp	.+448    	; 0x440 <__LOCK_REGION_LENGTH__+0x40>
     280:	82 e0       	ldi	r24, 0x02	; 2
     282:	80 93 77 01 	sts	0x0177, r24	; 0x800177 <g_adc_state>
     286:	e2 c0       	rjmp	.+452    	; 0x44c <__LOCK_REGION_LENGTH__+0x4c>
     288:	83 30       	cpi	r24, 0x03	; 3
     28a:	09 f4       	brne	.+2      	; 0x28e <__vector_21+0x8a>
     28c:	6b c0       	rjmp	.+214    	; 0x364 <__vector_21+0x160>
     28e:	84 30       	cpi	r24, 0x04	; 4
     290:	09 f4       	brne	.+2      	; 0x294 <__vector_21+0x90>
     292:	6c c0       	rjmp	.+216    	; 0x36c <__vector_21+0x168>
     294:	d5 c0       	rjmp	.+426    	; 0x440 <__LOCK_REGION_LENGTH__+0x40>
     296:	91 11       	cpse	r25, r1
     298:	d9 c0       	rjmp	.+434    	; 0x44c <__LOCK_REGION_LENGTH__+0x4c>
     29a:	c0 90 73 01 	lds	r12, 0x0173	; 0x800173 <g_adc_12v>
     29e:	d0 90 74 01 	lds	r13, 0x0174	; 0x800174 <g_adc_12v+0x1>
     2a2:	e0 90 75 01 	lds	r14, 0x0175	; 0x800175 <g_adc_12v+0x2>
     2a6:	f0 90 76 01 	lds	r15, 0x0176	; 0x800176 <g_adc_12v+0x3>
     2aa:	78 94       	sei
     2ac:	20 e0       	ldi	r18, 0x00	; 0
     2ae:	30 e0       	ldi	r19, 0x00	; 0
     2b0:	a9 01       	movw	r20, r18
     2b2:	c7 01       	movw	r24, r14
     2b4:	b6 01       	movw	r22, r12
     2b6:	0e 94 c1 0b 	call	0x1782	; 0x1782 <__cmpsf2>
     2ba:	ae 01       	movw	r20, r28
     2bc:	60 e0       	ldi	r22, 0x00	; 0
     2be:	70 e0       	ldi	r23, 0x00	; 0
     2c0:	88 23       	and	r24, r24
     2c2:	e9 f0       	breq	.+58     	; 0x2fe <__vector_21+0xfa>
     2c4:	cb 01       	movw	r24, r22
     2c6:	ba 01       	movw	r22, r20
     2c8:	0e 94 f6 0b 	call	0x17ec	; 0x17ec <__floatunsisf>
     2cc:	2a e0       	ldi	r18, 0x0A	; 10
     2ce:	37 ed       	ldi	r19, 0xD7	; 215
     2d0:	43 ea       	ldi	r20, 0xA3	; 163
     2d2:	5c e3       	ldi	r21, 0x3C	; 60
     2d4:	0e 94 a8 0c 	call	0x1950	; 0x1950 <__mulsf3>
     2d8:	4b 01       	movw	r8, r22
     2da:	5c 01       	movw	r10, r24
     2dc:	28 e4       	ldi	r18, 0x48	; 72
     2de:	31 ee       	ldi	r19, 0xE1	; 225
     2e0:	4a e7       	ldi	r20, 0x7A	; 122
     2e2:	5f e3       	ldi	r21, 0x3F	; 63
     2e4:	c7 01       	movw	r24, r14
     2e6:	b6 01       	movw	r22, r12
     2e8:	0e 94 a8 0c 	call	0x1950	; 0x1950 <__mulsf3>
     2ec:	9b 01       	movw	r18, r22
     2ee:	ac 01       	movw	r20, r24
     2f0:	c5 01       	movw	r24, r10
     2f2:	b4 01       	movw	r22, r8
     2f4:	0e 94 5d 0b 	call	0x16ba	; 0x16ba <__addsf3>
     2f8:	4b 01       	movw	r8, r22
     2fa:	5c 01       	movw	r10, r24
     2fc:	06 c0       	rjmp	.+12     	; 0x30a <__vector_21+0x106>
     2fe:	cb 01       	movw	r24, r22
     300:	ba 01       	movw	r22, r20
     302:	0e 94 f6 0b 	call	0x17ec	; 0x17ec <__floatunsisf>
     306:	4b 01       	movw	r8, r22
     308:	5c 01       	movw	r10, r24
     30a:	c7 01       	movw	r24, r14
     30c:	b6 01       	movw	r22, r12
     30e:	0e 94 ca 0b 	call	0x1794	; 0x1794 <__fixunssfsi>
     312:	9b 01       	movw	r18, r22
     314:	ac 01       	movw	r20, r24
     316:	6d e2       	ldi	r22, 0x2D	; 45
     318:	78 e8       	ldi	r23, 0x88	; 136
     31a:	8c e2       	ldi	r24, 0x2C	; 44
     31c:	90 e0       	ldi	r25, 0x00	; 0
     31e:	0e 94 0b 0d 	call	0x1a16	; 0x1a16 <__mulsi3>
     322:	20 e0       	ldi	r18, 0x00	; 0
     324:	30 ed       	ldi	r19, 0xD0	; 208
     326:	42 e0       	ldi	r20, 0x02	; 2
     328:	50 e0       	ldi	r21, 0x00	; 0
     32a:	0e 94 1a 0d 	call	0x1a34	; 0x1a34 <__udivmodsi4>
     32e:	f8 94       	cli
     330:	80 92 73 01 	sts	0x0173, r8	; 0x800173 <g_adc_12v>
     334:	90 92 74 01 	sts	0x0174, r9	; 0x800174 <g_adc_12v+0x1>
     338:	a0 92 75 01 	sts	0x0175, r10	; 0x800175 <g_adc_12v+0x2>
     33c:	b0 92 76 01 	sts	0x0176, r11	; 0x800176 <g_adc_12v+0x3>
     340:	30 93 72 01 	sts	0x0172, r19	; 0x800172 <g_adc_12v_1000+0x1>
     344:	20 93 71 01 	sts	0x0171, r18	; 0x800171 <g_adc_12v_1000>
     348:	81 e0       	ldi	r24, 0x01	; 1
     34a:	24 30       	cpi	r18, 0x04	; 4
     34c:	39 42       	sbci	r19, 0x29	; 41
     34e:	08 f0       	brcs	.+2      	; 0x352 <__vector_21+0x14e>
     350:	80 e0       	ldi	r24, 0x00	; 0
     352:	80 93 70 01 	sts	0x0170, r24	; 0x800170 <g_adc_12v_under>
     356:	88 ec       	ldi	r24, 0xC8	; 200
     358:	80 93 7c 00 	sts	0x007C, r24	; 0x80007c <__TEXT_REGION_LENGTH__+0x7e007c>
     35c:	83 e0       	ldi	r24, 0x03	; 3
     35e:	80 93 77 01 	sts	0x0177, r24	; 0x800177 <g_adc_state>
     362:	74 c0       	rjmp	.+232    	; 0x44c <__LOCK_REGION_LENGTH__+0x4c>
     364:	84 e0       	ldi	r24, 0x04	; 4
     366:	80 93 77 01 	sts	0x0177, r24	; 0x800177 <g_adc_state>
     36a:	70 c0       	rjmp	.+224    	; 0x44c <__LOCK_REGION_LENGTH__+0x4c>
     36c:	80 91 00 01 	lds	r24, 0x0100	; 0x800100 <__data_start>
     370:	81 11       	cpse	r24, r1
     372:	6c c0       	rjmp	.+216    	; 0x44c <__LOCK_REGION_LENGTH__+0x4c>
     374:	c0 90 6c 01 	lds	r12, 0x016C	; 0x80016c <g_adc_temp>
     378:	d0 90 6d 01 	lds	r13, 0x016D	; 0x80016d <g_adc_temp+0x1>
     37c:	e0 90 6e 01 	lds	r14, 0x016E	; 0x80016e <g_adc_temp+0x2>
     380:	f0 90 6f 01 	lds	r15, 0x016F	; 0x80016f <g_adc_temp+0x3>
     384:	78 94       	sei
     386:	20 e0       	ldi	r18, 0x00	; 0
     388:	30 e0       	ldi	r19, 0x00	; 0
     38a:	a9 01       	movw	r20, r18
     38c:	c7 01       	movw	r24, r14
     38e:	b6 01       	movw	r22, r12
     390:	0e 94 c1 0b 	call	0x1782	; 0x1782 <__cmpsf2>
     394:	ae 01       	movw	r20, r28
     396:	60 e0       	ldi	r22, 0x00	; 0
     398:	70 e0       	ldi	r23, 0x00	; 0
     39a:	88 23       	and	r24, r24
     39c:	d9 f0       	breq	.+54     	; 0x3d4 <__vector_21+0x1d0>
     39e:	cb 01       	movw	r24, r22
     3a0:	ba 01       	movw	r22, r20
     3a2:	0e 94 f6 0b 	call	0x17ec	; 0x17ec <__floatunsisf>
     3a6:	2f e6       	ldi	r18, 0x6F	; 111
     3a8:	32 e1       	ldi	r19, 0x12	; 18
     3aa:	43 e0       	ldi	r20, 0x03	; 3
     3ac:	5b e3       	ldi	r21, 0x3B	; 59
     3ae:	0e 94 a8 0c 	call	0x1950	; 0x1950 <__mulsf3>
     3b2:	4b 01       	movw	r8, r22
     3b4:	5c 01       	movw	r10, r24
     3b6:	2e ee       	ldi	r18, 0xEE	; 238
     3b8:	3c e7       	ldi	r19, 0x7C	; 124
     3ba:	4f e7       	ldi	r20, 0x7F	; 127
     3bc:	5f e3       	ldi	r21, 0x3F	; 63
     3be:	c7 01       	movw	r24, r14
     3c0:	b6 01       	movw	r22, r12
     3c2:	0e 94 a8 0c 	call	0x1950	; 0x1950 <__mulsf3>
     3c6:	9b 01       	movw	r18, r22
     3c8:	ac 01       	movw	r20, r24
     3ca:	c5 01       	movw	r24, r10
     3cc:	b4 01       	movw	r22, r8
     3ce:	0e 94 5d 0b 	call	0x16ba	; 0x16ba <__addsf3>
     3d2:	04 c0       	rjmp	.+8      	; 0x3dc <__vector_21+0x1d8>
     3d4:	cb 01       	movw	r24, r22
     3d6:	ba 01       	movw	r22, r20
     3d8:	0e 94 f6 0b 	call	0x17ec	; 0x17ec <__floatunsisf>
     3dc:	f8 94       	cli
     3de:	60 93 6c 01 	sts	0x016C, r22	; 0x80016c <g_adc_temp>
     3e2:	70 93 6d 01 	sts	0x016D, r23	; 0x80016d <g_adc_temp+0x1>
     3e6:	80 93 6e 01 	sts	0x016E, r24	; 0x80016e <g_adc_temp+0x2>
     3ea:	90 93 6f 01 	sts	0x016F, r25	; 0x80016f <g_adc_temp+0x3>
     3ee:	23 eb       	ldi	r18, 0xB3	; 179
     3f0:	30 e4       	ldi	r19, 0x40	; 64
     3f2:	45 e9       	ldi	r20, 0x95	; 149
     3f4:	53 e4       	ldi	r21, 0x43	; 67
     3f6:	0e 94 5c 0b 	call	0x16b8	; 0x16b8 <__subsf3>
     3fa:	20 e0       	ldi	r18, 0x00	; 0
     3fc:	30 ea       	ldi	r19, 0xA0	; 160
     3fe:	47 e8       	ldi	r20, 0x87	; 135
     400:	5f e3       	ldi	r21, 0x3F	; 63
     402:	0e 94 a8 0c 	call	0x1950	; 0x1950 <__mulsf3>
     406:	20 e0       	ldi	r18, 0x00	; 0
     408:	30 e0       	ldi	r19, 0x00	; 0
     40a:	48 ec       	ldi	r20, 0xC8	; 200
     40c:	51 e4       	ldi	r21, 0x41	; 65
     40e:	0e 94 5d 0b 	call	0x16ba	; 0x16ba <__addsf3>
     412:	20 e0       	ldi	r18, 0x00	; 0
     414:	30 e0       	ldi	r19, 0x00	; 0
     416:	48 ec       	ldi	r20, 0xC8	; 200
     418:	52 e4       	ldi	r21, 0x42	; 66
     41a:	0e 94 a8 0c 	call	0x1950	; 0x1950 <__mulsf3>
     41e:	0e 94 c5 0b 	call	0x178a	; 0x178a <__fixsfsi>
     422:	60 93 68 01 	sts	0x0168, r22	; 0x800168 <g_adc_temp_100>
     426:	70 93 69 01 	sts	0x0169, r23	; 0x800169 <g_adc_temp_100+0x1>
     42a:	80 93 6a 01 	sts	0x016A, r24	; 0x80016a <g_adc_temp_100+0x2>
     42e:	90 93 6b 01 	sts	0x016B, r25	; 0x80016b <g_adc_temp_100+0x3>
     432:	80 ec       	ldi	r24, 0xC0	; 192
     434:	80 93 7c 00 	sts	0x007C, r24	; 0x80007c <__TEXT_REGION_LENGTH__+0x7e007c>
     438:	81 e0       	ldi	r24, 0x01	; 1
     43a:	80 93 77 01 	sts	0x0177, r24	; 0x800177 <g_adc_state>
     43e:	06 c0       	rjmp	.+12     	; 0x44c <__LOCK_REGION_LENGTH__+0x4c>
     440:	80 ec       	ldi	r24, 0xC0	; 192
     442:	80 93 7c 00 	sts	0x007C, r24	; 0x80007c <__TEXT_REGION_LENGTH__+0x7e007c>
     446:	81 e0       	ldi	r24, 0x01	; 1
     448:	80 93 77 01 	sts	0x0177, r24	; 0x800177 <g_adc_state>
     44c:	ff 91       	pop	r31
     44e:	ef 91       	pop	r30
     450:	df 91       	pop	r29
     452:	cf 91       	pop	r28
     454:	bf 91       	pop	r27
     456:	af 91       	pop	r26
     458:	9f 91       	pop	r25
     45a:	8f 91       	pop	r24
     45c:	7f 91       	pop	r23
     45e:	6f 91       	pop	r22
     460:	5f 91       	pop	r21
     462:	4f 91       	pop	r20
     464:	3f 91       	pop	r19
     466:	2f 91       	pop	r18
     468:	ff 90       	pop	r15
     46a:	ef 90       	pop	r14
     46c:	df 90       	pop	r13
     46e:	cf 90       	pop	r12
     470:	bf 90       	pop	r11
     472:	af 90       	pop	r10
     474:	9f 90       	pop	r9
     476:	8f 90       	pop	r8
     478:	0f 90       	pop	r0
     47a:	0f be       	out	0x3f, r0	; 63
     47c:	0f 90       	pop	r0
     47e:	1f 90       	pop	r1
     480:	18 95       	reti

00000482 <__vector_25>:
     482:	1f 92       	push	r1
     484:	0f 92       	push	r0
     486:	0f b6       	in	r0, 0x3f	; 63
     488:	0f 92       	push	r0
     48a:	11 24       	eor	r1, r1
     48c:	2f 93       	push	r18
     48e:	3f 93       	push	r19
     490:	4f 93       	push	r20
     492:	5f 93       	push	r21
     494:	6f 93       	push	r22
     496:	7f 93       	push	r23
     498:	8f 93       	push	r24
     49a:	9f 93       	push	r25
     49c:	af 93       	push	r26
     49e:	bf 93       	push	r27
     4a0:	ef 93       	push	r30
     4a2:	ff 93       	push	r31
     4a4:	fe dd       	rcall	.-1028   	; 0xa2 <asm_break>
     4a6:	ff 91       	pop	r31
     4a8:	ef 91       	pop	r30
     4aa:	bf 91       	pop	r27
     4ac:	af 91       	pop	r26
     4ae:	9f 91       	pop	r25
     4b0:	8f 91       	pop	r24
     4b2:	7f 91       	pop	r23
     4b4:	6f 91       	pop	r22
     4b6:	5f 91       	pop	r21
     4b8:	4f 91       	pop	r20
     4ba:	3f 91       	pop	r19
     4bc:	2f 91       	pop	r18
     4be:	0f 90       	pop	r0
     4c0:	0f be       	out	0x3f, r0	; 63
     4c2:	0f 90       	pop	r0
     4c4:	1f 90       	pop	r1
     4c6:	18 95       	reti

000004c8 <__vector_24>:
     4c8:	1f 92       	push	r1
     4ca:	0f 92       	push	r0
     4cc:	0f b6       	in	r0, 0x3f	; 63
     4ce:	0f 92       	push	r0
     4d0:	11 24       	eor	r1, r1
     4d2:	2f 93       	push	r18
     4d4:	3f 93       	push	r19
     4d6:	4f 93       	push	r20
     4d8:	5f 93       	push	r21
     4da:	6f 93       	push	r22
     4dc:	7f 93       	push	r23
     4de:	8f 93       	push	r24
     4e0:	9f 93       	push	r25
     4e2:	af 93       	push	r26
     4e4:	bf 93       	push	r27
     4e6:	ef 93       	push	r30
     4e8:	ff 93       	push	r31
     4ea:	cb df       	rcall	.-106    	; 0x482 <__vector_25>
     4ec:	ff 91       	pop	r31
     4ee:	ef 91       	pop	r30
     4f0:	bf 91       	pop	r27
     4f2:	af 91       	pop	r26
     4f4:	9f 91       	pop	r25
     4f6:	8f 91       	pop	r24
     4f8:	7f 91       	pop	r23
     4fa:	6f 91       	pop	r22
     4fc:	5f 91       	pop	r21
     4fe:	4f 91       	pop	r20
     500:	3f 91       	pop	r19
     502:	2f 91       	pop	r18
     504:	0f 90       	pop	r0
     506:	0f be       	out	0x3f, r0	; 63
     508:	0f 90       	pop	r0
     50a:	1f 90       	pop	r1
     50c:	18 95       	reti

0000050e <__vector_23>:
     50e:	1f 92       	push	r1
     510:	0f 92       	push	r0
     512:	0f b6       	in	r0, 0x3f	; 63
     514:	0f 92       	push	r0
     516:	11 24       	eor	r1, r1
     518:	2f 93       	push	r18
     51a:	3f 93       	push	r19
     51c:	4f 93       	push	r20
     51e:	5f 93       	push	r21
     520:	6f 93       	push	r22
     522:	7f 93       	push	r23
     524:	8f 93       	push	r24
     526:	9f 93       	push	r25
     528:	af 93       	push	r26
     52a:	bf 93       	push	r27
     52c:	ef 93       	push	r30
     52e:	ff 93       	push	r31
     530:	a8 df       	rcall	.-176    	; 0x482 <__vector_25>
     532:	ff 91       	pop	r31
     534:	ef 91       	pop	r30
     536:	bf 91       	pop	r27
     538:	af 91       	pop	r26
     53a:	9f 91       	pop	r25
     53c:	8f 91       	pop	r24
     53e:	7f 91       	pop	r23
     540:	6f 91       	pop	r22
     542:	5f 91       	pop	r21
     544:	4f 91       	pop	r20
     546:	3f 91       	pop	r19
     548:	2f 91       	pop	r18
     54a:	0f 90       	pop	r0
     54c:	0f be       	out	0x3f, r0	; 63
     54e:	0f 90       	pop	r0
     550:	1f 90       	pop	r1
     552:	18 95       	reti

00000554 <__vector_22>:
     554:	1f 92       	push	r1
     556:	0f 92       	push	r0
     558:	0f b6       	in	r0, 0x3f	; 63
     55a:	0f 92       	push	r0
     55c:	11 24       	eor	r1, r1
     55e:	2f 93       	push	r18
     560:	3f 93       	push	r19
     562:	4f 93       	push	r20
     564:	5f 93       	push	r21
     566:	6f 93       	push	r22
     568:	7f 93       	push	r23
     56a:	8f 93       	push	r24
     56c:	9f 93       	push	r25
     56e:	af 93       	push	r26
     570:	bf 93       	push	r27
     572:	ef 93       	push	r30
     574:	ff 93       	push	r31
     576:	85 df       	rcall	.-246    	; 0x482 <__vector_25>
     578:	ff 91       	pop	r31
     57a:	ef 91       	pop	r30
     57c:	bf 91       	pop	r27
     57e:	af 91       	pop	r26
     580:	9f 91       	pop	r25
     582:	8f 91       	pop	r24
     584:	7f 91       	pop	r23
     586:	6f 91       	pop	r22
     588:	5f 91       	pop	r21
     58a:	4f 91       	pop	r20
     58c:	3f 91       	pop	r19
     58e:	2f 91       	pop	r18
     590:	0f 90       	pop	r0
     592:	0f be       	out	0x3f, r0	; 63
     594:	0f 90       	pop	r0
     596:	1f 90       	pop	r1
     598:	18 95       	reti

0000059a <__vector_20>:
     59a:	1f 92       	push	r1
     59c:	0f 92       	push	r0
     59e:	0f b6       	in	r0, 0x3f	; 63
     5a0:	0f 92       	push	r0
     5a2:	11 24       	eor	r1, r1
     5a4:	2f 93       	push	r18
     5a6:	3f 93       	push	r19
     5a8:	4f 93       	push	r20
     5aa:	5f 93       	push	r21
     5ac:	6f 93       	push	r22
     5ae:	7f 93       	push	r23
     5b0:	8f 93       	push	r24
     5b2:	9f 93       	push	r25
     5b4:	af 93       	push	r26
     5b6:	bf 93       	push	r27
     5b8:	ef 93       	push	r30
     5ba:	ff 93       	push	r31
     5bc:	62 df       	rcall	.-316    	; 0x482 <__vector_25>
     5be:	ff 91       	pop	r31
     5c0:	ef 91       	pop	r30
     5c2:	bf 91       	pop	r27
     5c4:	af 91       	pop	r26
     5c6:	9f 91       	pop	r25
     5c8:	8f 91       	pop	r24
     5ca:	7f 91       	pop	r23
     5cc:	6f 91       	pop	r22
     5ce:	5f 91       	pop	r21
     5d0:	4f 91       	pop	r20
     5d2:	3f 91       	pop	r19
     5d4:	2f 91       	pop	r18
     5d6:	0f 90       	pop	r0
     5d8:	0f be       	out	0x3f, r0	; 63
     5da:	0f 90       	pop	r0
     5dc:	1f 90       	pop	r1
     5de:	18 95       	reti

000005e0 <__vector_19>:
     5e0:	1f 92       	push	r1
     5e2:	0f 92       	push	r0
     5e4:	0f b6       	in	r0, 0x3f	; 63
     5e6:	0f 92       	push	r0
     5e8:	11 24       	eor	r1, r1
     5ea:	2f 93       	push	r18
     5ec:	3f 93       	push	r19
     5ee:	4f 93       	push	r20
     5f0:	5f 93       	push	r21
     5f2:	6f 93       	push	r22
     5f4:	7f 93       	push	r23
     5f6:	8f 93       	push	r24
     5f8:	9f 93       	push	r25
     5fa:	af 93       	push	r26
     5fc:	bf 93       	push	r27
     5fe:	ef 93       	push	r30
     600:	ff 93       	push	r31
     602:	3f df       	rcall	.-386    	; 0x482 <__vector_25>
     604:	ff 91       	pop	r31
     606:	ef 91       	pop	r30
     608:	bf 91       	pop	r27
     60a:	af 91       	pop	r26
     60c:	9f 91       	pop	r25
     60e:	8f 91       	pop	r24
     610:	7f 91       	pop	r23
     612:	6f 91       	pop	r22
     614:	5f 91       	pop	r21
     616:	4f 91       	pop	r20
     618:	3f 91       	pop	r19
     61a:	2f 91       	pop	r18
     61c:	0f 90       	pop	r0
     61e:	0f be       	out	0x3f, r0	; 63
     620:	0f 90       	pop	r0
     622:	1f 90       	pop	r1
     624:	18 95       	reti

00000626 <__vector_18>:
     626:	1f 92       	push	r1
     628:	0f 92       	push	r0
     62a:	0f b6       	in	r0, 0x3f	; 63
     62c:	0f 92       	push	r0
     62e:	11 24       	eor	r1, r1
     630:	2f 93       	push	r18
     632:	3f 93       	push	r19
     634:	4f 93       	push	r20
     636:	5f 93       	push	r21
     638:	6f 93       	push	r22
     63a:	7f 93       	push	r23
     63c:	8f 93       	push	r24
     63e:	9f 93       	push	r25
     640:	af 93       	push	r26
     642:	bf 93       	push	r27
     644:	ef 93       	push	r30
     646:	ff 93       	push	r31
     648:	1c df       	rcall	.-456    	; 0x482 <__vector_25>
     64a:	ff 91       	pop	r31
     64c:	ef 91       	pop	r30
     64e:	bf 91       	pop	r27
     650:	af 91       	pop	r26
     652:	9f 91       	pop	r25
     654:	8f 91       	pop	r24
     656:	7f 91       	pop	r23
     658:	6f 91       	pop	r22
     65a:	5f 91       	pop	r21
     65c:	4f 91       	pop	r20
     65e:	3f 91       	pop	r19
     660:	2f 91       	pop	r18
     662:	0f 90       	pop	r0
     664:	0f be       	out	0x3f, r0	; 63
     666:	0f 90       	pop	r0
     668:	1f 90       	pop	r1
     66a:	18 95       	reti

0000066c <__vector_17>:
     66c:	1f 92       	push	r1
     66e:	0f 92       	push	r0
     670:	0f b6       	in	r0, 0x3f	; 63
     672:	0f 92       	push	r0
     674:	11 24       	eor	r1, r1
     676:	2f 93       	push	r18
     678:	3f 93       	push	r19
     67a:	4f 93       	push	r20
     67c:	5f 93       	push	r21
     67e:	6f 93       	push	r22
     680:	7f 93       	push	r23
     682:	8f 93       	push	r24
     684:	9f 93       	push	r25
     686:	af 93       	push	r26
     688:	bf 93       	push	r27
     68a:	ef 93       	push	r30
     68c:	ff 93       	push	r31
     68e:	f9 de       	rcall	.-526    	; 0x482 <__vector_25>
     690:	ff 91       	pop	r31
     692:	ef 91       	pop	r30
     694:	bf 91       	pop	r27
     696:	af 91       	pop	r26
     698:	9f 91       	pop	r25
     69a:	8f 91       	pop	r24
     69c:	7f 91       	pop	r23
     69e:	6f 91       	pop	r22
     6a0:	5f 91       	pop	r21
     6a2:	4f 91       	pop	r20
     6a4:	3f 91       	pop	r19
     6a6:	2f 91       	pop	r18
     6a8:	0f 90       	pop	r0
     6aa:	0f be       	out	0x3f, r0	; 63
     6ac:	0f 90       	pop	r0
     6ae:	1f 90       	pop	r1
     6b0:	18 95       	reti

000006b2 <__vector_16>:
     6b2:	1f 92       	push	r1
     6b4:	0f 92       	push	r0
     6b6:	0f b6       	in	r0, 0x3f	; 63
     6b8:	0f 92       	push	r0
     6ba:	11 24       	eor	r1, r1
     6bc:	2f 93       	push	r18
     6be:	3f 93       	push	r19
     6c0:	4f 93       	push	r20
     6c2:	5f 93       	push	r21
     6c4:	6f 93       	push	r22
     6c6:	7f 93       	push	r23
     6c8:	8f 93       	push	r24
     6ca:	9f 93       	push	r25
     6cc:	af 93       	push	r26
     6ce:	bf 93       	push	r27
     6d0:	ef 93       	push	r30
     6d2:	ff 93       	push	r31
     6d4:	d6 de       	rcall	.-596    	; 0x482 <__vector_25>
     6d6:	ff 91       	pop	r31
     6d8:	ef 91       	pop	r30
     6da:	bf 91       	pop	r27
     6dc:	af 91       	pop	r26
     6de:	9f 91       	pop	r25
     6e0:	8f 91       	pop	r24
     6e2:	7f 91       	pop	r23
     6e4:	6f 91       	pop	r22
     6e6:	5f 91       	pop	r21
     6e8:	4f 91       	pop	r20
     6ea:	3f 91       	pop	r19
     6ec:	2f 91       	pop	r18
     6ee:	0f 90       	pop	r0
     6f0:	0f be       	out	0x3f, r0	; 63
     6f2:	0f 90       	pop	r0
     6f4:	1f 90       	pop	r1
     6f6:	18 95       	reti

000006f8 <__vector_15>:
     6f8:	1f 92       	push	r1
     6fa:	0f 92       	push	r0
     6fc:	0f b6       	in	r0, 0x3f	; 63
     6fe:	0f 92       	push	r0
     700:	11 24       	eor	r1, r1
     702:	2f 93       	push	r18
     704:	3f 93       	push	r19
     706:	4f 93       	push	r20
     708:	5f 93       	push	r21
     70a:	6f 93       	push	r22
     70c:	7f 93       	push	r23
     70e:	8f 93       	push	r24
     710:	9f 93       	push	r25
     712:	af 93       	push	r26
     714:	bf 93       	push	r27
     716:	ef 93       	push	r30
     718:	ff 93       	push	r31
     71a:	b3 de       	rcall	.-666    	; 0x482 <__vector_25>
     71c:	ff 91       	pop	r31
     71e:	ef 91       	pop	r30
     720:	bf 91       	pop	r27
     722:	af 91       	pop	r26
     724:	9f 91       	pop	r25
     726:	8f 91       	pop	r24
     728:	7f 91       	pop	r23
     72a:	6f 91       	pop	r22
     72c:	5f 91       	pop	r21
     72e:	4f 91       	pop	r20
     730:	3f 91       	pop	r19
     732:	2f 91       	pop	r18
     734:	0f 90       	pop	r0
     736:	0f be       	out	0x3f, r0	; 63
     738:	0f 90       	pop	r0
     73a:	1f 90       	pop	r1
     73c:	18 95       	reti

0000073e <__vector_14>:
     73e:	1f 92       	push	r1
     740:	0f 92       	push	r0
     742:	0f b6       	in	r0, 0x3f	; 63
     744:	0f 92       	push	r0
     746:	11 24       	eor	r1, r1
     748:	2f 93       	push	r18
     74a:	3f 93       	push	r19
     74c:	4f 93       	push	r20
     74e:	5f 93       	push	r21
     750:	6f 93       	push	r22
     752:	7f 93       	push	r23
     754:	8f 93       	push	r24
     756:	9f 93       	push	r25
     758:	af 93       	push	r26
     75a:	bf 93       	push	r27
     75c:	ef 93       	push	r30
     75e:	ff 93       	push	r31
     760:	90 de       	rcall	.-736    	; 0x482 <__vector_25>
     762:	ff 91       	pop	r31
     764:	ef 91       	pop	r30
     766:	bf 91       	pop	r27
     768:	af 91       	pop	r26
     76a:	9f 91       	pop	r25
     76c:	8f 91       	pop	r24
     76e:	7f 91       	pop	r23
     770:	6f 91       	pop	r22
     772:	5f 91       	pop	r21
     774:	4f 91       	pop	r20
     776:	3f 91       	pop	r19
     778:	2f 91       	pop	r18
     77a:	0f 90       	pop	r0
     77c:	0f be       	out	0x3f, r0	; 63
     77e:	0f 90       	pop	r0
     780:	1f 90       	pop	r1
     782:	18 95       	reti

00000784 <__vector_12>:
     784:	1f 92       	push	r1
     786:	0f 92       	push	r0
     788:	0f b6       	in	r0, 0x3f	; 63
     78a:	0f 92       	push	r0
     78c:	11 24       	eor	r1, r1
     78e:	2f 93       	push	r18
     790:	3f 93       	push	r19
     792:	4f 93       	push	r20
     794:	5f 93       	push	r21
     796:	6f 93       	push	r22
     798:	7f 93       	push	r23
     79a:	8f 93       	push	r24
     79c:	9f 93       	push	r25
     79e:	af 93       	push	r26
     7a0:	bf 93       	push	r27
     7a2:	ef 93       	push	r30
     7a4:	ff 93       	push	r31
     7a6:	6d de       	rcall	.-806    	; 0x482 <__vector_25>
     7a8:	ff 91       	pop	r31
     7aa:	ef 91       	pop	r30
     7ac:	bf 91       	pop	r27
     7ae:	af 91       	pop	r26
     7b0:	9f 91       	pop	r25
     7b2:	8f 91       	pop	r24
     7b4:	7f 91       	pop	r23
     7b6:	6f 91       	pop	r22
     7b8:	5f 91       	pop	r21
     7ba:	4f 91       	pop	r20
     7bc:	3f 91       	pop	r19
     7be:	2f 91       	pop	r18
     7c0:	0f 90       	pop	r0
     7c2:	0f be       	out	0x3f, r0	; 63
     7c4:	0f 90       	pop	r0
     7c6:	1f 90       	pop	r1
     7c8:	18 95       	reti

000007ca <__vector_11>:
     7ca:	1f 92       	push	r1
     7cc:	0f 92       	push	r0
     7ce:	0f b6       	in	r0, 0x3f	; 63
     7d0:	0f 92       	push	r0
     7d2:	11 24       	eor	r1, r1
     7d4:	2f 93       	push	r18
     7d6:	3f 93       	push	r19
     7d8:	4f 93       	push	r20
     7da:	5f 93       	push	r21
     7dc:	6f 93       	push	r22
     7de:	7f 93       	push	r23
     7e0:	8f 93       	push	r24
     7e2:	9f 93       	push	r25
     7e4:	af 93       	push	r26
     7e6:	bf 93       	push	r27
     7e8:	ef 93       	push	r30
     7ea:	ff 93       	push	r31
     7ec:	4a de       	rcall	.-876    	; 0x482 <__vector_25>
     7ee:	ff 91       	pop	r31
     7f0:	ef 91       	pop	r30
     7f2:	bf 91       	pop	r27
     7f4:	af 91       	pop	r26
     7f6:	9f 91       	pop	r25
     7f8:	8f 91       	pop	r24
     7fa:	7f 91       	pop	r23
     7fc:	6f 91       	pop	r22
     7fe:	5f 91       	pop	r21
     800:	4f 91       	pop	r20
     802:	3f 91       	pop	r19
     804:	2f 91       	pop	r18
     806:	0f 90       	pop	r0
     808:	0f be       	out	0x3f, r0	; 63
     80a:	0f 90       	pop	r0
     80c:	1f 90       	pop	r1
     80e:	18 95       	reti

00000810 <__vector_10>:
     810:	1f 92       	push	r1
     812:	0f 92       	push	r0
     814:	0f b6       	in	r0, 0x3f	; 63
     816:	0f 92       	push	r0
     818:	11 24       	eor	r1, r1
     81a:	2f 93       	push	r18
     81c:	3f 93       	push	r19
     81e:	4f 93       	push	r20
     820:	5f 93       	push	r21
     822:	6f 93       	push	r22
     824:	7f 93       	push	r23
     826:	8f 93       	push	r24
     828:	9f 93       	push	r25
     82a:	af 93       	push	r26
     82c:	bf 93       	push	r27
     82e:	ef 93       	push	r30
     830:	ff 93       	push	r31
     832:	27 de       	rcall	.-946    	; 0x482 <__vector_25>
     834:	ff 91       	pop	r31
     836:	ef 91       	pop	r30
     838:	bf 91       	pop	r27
     83a:	af 91       	pop	r26
     83c:	9f 91       	pop	r25
     83e:	8f 91       	pop	r24
     840:	7f 91       	pop	r23
     842:	6f 91       	pop	r22
     844:	5f 91       	pop	r21
     846:	4f 91       	pop	r20
     848:	3f 91       	pop	r19
     84a:	2f 91       	pop	r18
     84c:	0f 90       	pop	r0
     84e:	0f be       	out	0x3f, r0	; 63
     850:	0f 90       	pop	r0
     852:	1f 90       	pop	r1
     854:	18 95       	reti

00000856 <__vector_9>:
     856:	1f 92       	push	r1
     858:	0f 92       	push	r0
     85a:	0f b6       	in	r0, 0x3f	; 63
     85c:	0f 92       	push	r0
     85e:	11 24       	eor	r1, r1
     860:	2f 93       	push	r18
     862:	3f 93       	push	r19
     864:	4f 93       	push	r20
     866:	5f 93       	push	r21
     868:	6f 93       	push	r22
     86a:	7f 93       	push	r23
     86c:	8f 93       	push	r24
     86e:	9f 93       	push	r25
     870:	af 93       	push	r26
     872:	bf 93       	push	r27
     874:	ef 93       	push	r30
     876:	ff 93       	push	r31
     878:	04 de       	rcall	.-1016   	; 0x482 <__vector_25>
     87a:	ff 91       	pop	r31
     87c:	ef 91       	pop	r30
     87e:	bf 91       	pop	r27
     880:	af 91       	pop	r26
     882:	9f 91       	pop	r25
     884:	8f 91       	pop	r24
     886:	7f 91       	pop	r23
     888:	6f 91       	pop	r22
     88a:	5f 91       	pop	r21
     88c:	4f 91       	pop	r20
     88e:	3f 91       	pop	r19
     890:	2f 91       	pop	r18
     892:	0f 90       	pop	r0
     894:	0f be       	out	0x3f, r0	; 63
     896:	0f 90       	pop	r0
     898:	1f 90       	pop	r1
     89a:	18 95       	reti

0000089c <__vector_8>:
     89c:	1f 92       	push	r1
     89e:	0f 92       	push	r0
     8a0:	0f b6       	in	r0, 0x3f	; 63
     8a2:	0f 92       	push	r0
     8a4:	11 24       	eor	r1, r1
     8a6:	2f 93       	push	r18
     8a8:	3f 93       	push	r19
     8aa:	4f 93       	push	r20
     8ac:	5f 93       	push	r21
     8ae:	6f 93       	push	r22
     8b0:	7f 93       	push	r23
     8b2:	8f 93       	push	r24
     8b4:	9f 93       	push	r25
     8b6:	af 93       	push	r26
     8b8:	bf 93       	push	r27
     8ba:	ef 93       	push	r30
     8bc:	ff 93       	push	r31
     8be:	e1 dd       	rcall	.-1086   	; 0x482 <__vector_25>
     8c0:	ff 91       	pop	r31
     8c2:	ef 91       	pop	r30
     8c4:	bf 91       	pop	r27
     8c6:	af 91       	pop	r26
     8c8:	9f 91       	pop	r25
     8ca:	8f 91       	pop	r24
     8cc:	7f 91       	pop	r23
     8ce:	6f 91       	pop	r22
     8d0:	5f 91       	pop	r21
     8d2:	4f 91       	pop	r20
     8d4:	3f 91       	pop	r19
     8d6:	2f 91       	pop	r18
     8d8:	0f 90       	pop	r0
     8da:	0f be       	out	0x3f, r0	; 63
     8dc:	0f 90       	pop	r0
     8de:	1f 90       	pop	r1
     8e0:	18 95       	reti

000008e2 <__vector_7>:
     8e2:	1f 92       	push	r1
     8e4:	0f 92       	push	r0
     8e6:	0f b6       	in	r0, 0x3f	; 63
     8e8:	0f 92       	push	r0
     8ea:	11 24       	eor	r1, r1
     8ec:	2f 93       	push	r18
     8ee:	3f 93       	push	r19
     8f0:	4f 93       	push	r20
     8f2:	5f 93       	push	r21
     8f4:	6f 93       	push	r22
     8f6:	7f 93       	push	r23
     8f8:	8f 93       	push	r24
     8fa:	9f 93       	push	r25
     8fc:	af 93       	push	r26
     8fe:	bf 93       	push	r27
     900:	ef 93       	push	r30
     902:	ff 93       	push	r31
     904:	be dd       	rcall	.-1156   	; 0x482 <__vector_25>
     906:	ff 91       	pop	r31
     908:	ef 91       	pop	r30
     90a:	bf 91       	pop	r27
     90c:	af 91       	pop	r26
     90e:	9f 91       	pop	r25
     910:	8f 91       	pop	r24
     912:	7f 91       	pop	r23
     914:	6f 91       	pop	r22
     916:	5f 91       	pop	r21
     918:	4f 91       	pop	r20
     91a:	3f 91       	pop	r19
     91c:	2f 91       	pop	r18
     91e:	0f 90       	pop	r0
     920:	0f be       	out	0x3f, r0	; 63
     922:	0f 90       	pop	r0
     924:	1f 90       	pop	r1
     926:	18 95       	reti

00000928 <__vector_6>:
     928:	1f 92       	push	r1
     92a:	0f 92       	push	r0
     92c:	0f b6       	in	r0, 0x3f	; 63
     92e:	0f 92       	push	r0
     930:	11 24       	eor	r1, r1
     932:	2f 93       	push	r18
     934:	3f 93       	push	r19
     936:	4f 93       	push	r20
     938:	5f 93       	push	r21
     93a:	6f 93       	push	r22
     93c:	7f 93       	push	r23
     93e:	8f 93       	push	r24
     940:	9f 93       	push	r25
     942:	af 93       	push	r26
     944:	bf 93       	push	r27
     946:	ef 93       	push	r30
     948:	ff 93       	push	r31
     94a:	9b dd       	rcall	.-1226   	; 0x482 <__vector_25>
     94c:	ff 91       	pop	r31
     94e:	ef 91       	pop	r30
     950:	bf 91       	pop	r27
     952:	af 91       	pop	r26
     954:	9f 91       	pop	r25
     956:	8f 91       	pop	r24
     958:	7f 91       	pop	r23
     95a:	6f 91       	pop	r22
     95c:	5f 91       	pop	r21
     95e:	4f 91       	pop	r20
     960:	3f 91       	pop	r19
     962:	2f 91       	pop	r18
     964:	0f 90       	pop	r0
     966:	0f be       	out	0x3f, r0	; 63
     968:	0f 90       	pop	r0
     96a:	1f 90       	pop	r1
     96c:	18 95       	reti

0000096e <__vector_5>:
     96e:	1f 92       	push	r1
     970:	0f 92       	push	r0
     972:	0f b6       	in	r0, 0x3f	; 63
     974:	0f 92       	push	r0
     976:	11 24       	eor	r1, r1
     978:	2f 93       	push	r18
     97a:	3f 93       	push	r19
     97c:	4f 93       	push	r20
     97e:	5f 93       	push	r21
     980:	6f 93       	push	r22
     982:	7f 93       	push	r23
     984:	8f 93       	push	r24
     986:	9f 93       	push	r25
     988:	af 93       	push	r26
     98a:	bf 93       	push	r27
     98c:	ef 93       	push	r30
     98e:	ff 93       	push	r31
     990:	78 dd       	rcall	.-1296   	; 0x482 <__vector_25>
     992:	ff 91       	pop	r31
     994:	ef 91       	pop	r30
     996:	bf 91       	pop	r27
     998:	af 91       	pop	r26
     99a:	9f 91       	pop	r25
     99c:	8f 91       	pop	r24
     99e:	7f 91       	pop	r23
     9a0:	6f 91       	pop	r22
     9a2:	5f 91       	pop	r21
     9a4:	4f 91       	pop	r20
     9a6:	3f 91       	pop	r19
     9a8:	2f 91       	pop	r18
     9aa:	0f 90       	pop	r0
     9ac:	0f be       	out	0x3f, r0	; 63
     9ae:	0f 90       	pop	r0
     9b0:	1f 90       	pop	r1
     9b2:	18 95       	reti

000009b4 <__vector_3>:
     9b4:	1f 92       	push	r1
     9b6:	0f 92       	push	r0
     9b8:	0f b6       	in	r0, 0x3f	; 63
     9ba:	0f 92       	push	r0
     9bc:	11 24       	eor	r1, r1
     9be:	2f 93       	push	r18
     9c0:	3f 93       	push	r19
     9c2:	4f 93       	push	r20
     9c4:	5f 93       	push	r21
     9c6:	6f 93       	push	r22
     9c8:	7f 93       	push	r23
     9ca:	8f 93       	push	r24
     9cc:	9f 93       	push	r25
     9ce:	af 93       	push	r26
     9d0:	bf 93       	push	r27
     9d2:	ef 93       	push	r30
     9d4:	ff 93       	push	r31
     9d6:	55 dd       	rcall	.-1366   	; 0x482 <__vector_25>
     9d8:	ff 91       	pop	r31
     9da:	ef 91       	pop	r30
     9dc:	bf 91       	pop	r27
     9de:	af 91       	pop	r26
     9e0:	9f 91       	pop	r25
     9e2:	8f 91       	pop	r24
     9e4:	7f 91       	pop	r23
     9e6:	6f 91       	pop	r22
     9e8:	5f 91       	pop	r21
     9ea:	4f 91       	pop	r20
     9ec:	3f 91       	pop	r19
     9ee:	2f 91       	pop	r18
     9f0:	0f 90       	pop	r0
     9f2:	0f be       	out	0x3f, r0	; 63
     9f4:	0f 90       	pop	r0
     9f6:	1f 90       	pop	r1
     9f8:	18 95       	reti

000009fa <__vector_2>:
     9fa:	1f 92       	push	r1
     9fc:	0f 92       	push	r0
     9fe:	0f b6       	in	r0, 0x3f	; 63
     a00:	0f 92       	push	r0
     a02:	11 24       	eor	r1, r1
     a04:	2f 93       	push	r18
     a06:	3f 93       	push	r19
     a08:	4f 93       	push	r20
     a0a:	5f 93       	push	r21
     a0c:	6f 93       	push	r22
     a0e:	7f 93       	push	r23
     a10:	8f 93       	push	r24
     a12:	9f 93       	push	r25
     a14:	af 93       	push	r26
     a16:	bf 93       	push	r27
     a18:	ef 93       	push	r30
     a1a:	ff 93       	push	r31
     a1c:	32 dd       	rcall	.-1436   	; 0x482 <__vector_25>
     a1e:	ff 91       	pop	r31
     a20:	ef 91       	pop	r30
     a22:	bf 91       	pop	r27
     a24:	af 91       	pop	r26
     a26:	9f 91       	pop	r25
     a28:	8f 91       	pop	r24
     a2a:	7f 91       	pop	r23
     a2c:	6f 91       	pop	r22
     a2e:	5f 91       	pop	r21
     a30:	4f 91       	pop	r20
     a32:	3f 91       	pop	r19
     a34:	2f 91       	pop	r18
     a36:	0f 90       	pop	r0
     a38:	0f be       	out	0x3f, r0	; 63
     a3a:	0f 90       	pop	r0
     a3c:	1f 90       	pop	r1
     a3e:	18 95       	reti

00000a40 <__vector_1>:
     a40:	1f 92       	push	r1
     a42:	0f 92       	push	r0
     a44:	0f b6       	in	r0, 0x3f	; 63
     a46:	0f 92       	push	r0
     a48:	11 24       	eor	r1, r1
     a4a:	2f 93       	push	r18
     a4c:	3f 93       	push	r19
     a4e:	4f 93       	push	r20
     a50:	5f 93       	push	r21
     a52:	6f 93       	push	r22
     a54:	7f 93       	push	r23
     a56:	8f 93       	push	r24
     a58:	9f 93       	push	r25
     a5a:	af 93       	push	r26
     a5c:	bf 93       	push	r27
     a5e:	ef 93       	push	r30
     a60:	ff 93       	push	r31
     a62:	0f dd       	rcall	.-1506   	; 0x482 <__vector_25>
     a64:	ff 91       	pop	r31
     a66:	ef 91       	pop	r30
     a68:	bf 91       	pop	r27
     a6a:	af 91       	pop	r26
     a6c:	9f 91       	pop	r25
     a6e:	8f 91       	pop	r24
     a70:	7f 91       	pop	r23
     a72:	6f 91       	pop	r22
     a74:	5f 91       	pop	r21
     a76:	4f 91       	pop	r20
     a78:	3f 91       	pop	r19
     a7a:	2f 91       	pop	r18
     a7c:	0f 90       	pop	r0
     a7e:	0f be       	out	0x3f, r0	; 63
     a80:	0f 90       	pop	r0
     a82:	1f 90       	pop	r1
     a84:	18 95       	reti

00000a86 <cpu_irq_save>:
     a86:	cf 93       	push	r28
     a88:	df 93       	push	r29
     a8a:	1f 92       	push	r1
     a8c:	cd b7       	in	r28, 0x3d	; 61
     a8e:	de b7       	in	r29, 0x3e	; 62
     a90:	8f b7       	in	r24, 0x3f	; 63
     a92:	89 83       	std	Y+1, r24	; 0x01
     a94:	f8 94       	cli
     a96:	89 81       	ldd	r24, Y+1	; 0x01
     a98:	0f 90       	pop	r0
     a9a:	df 91       	pop	r29
     a9c:	cf 91       	pop	r28
     a9e:	08 95       	ret

00000aa0 <eeprom_nvm_settings_read.part.2>:
     aa0:	80 e0       	ldi	r24, 0x00	; 0
     aa2:	90 e0       	ldi	r25, 0x00	; 0
     aa4:	0e 94 7f 0d 	call	0x1afe	; 0x1afe <eeprom_read_byte>
     aa8:	81 31       	cpi	r24, 0x11	; 17
     aaa:	29 f0       	breq	.+10     	; 0xab6 <eeprom_nvm_settings_read.part.2+0x16>
     aac:	61 e1       	ldi	r22, 0x11	; 17
     aae:	80 e0       	ldi	r24, 0x00	; 0
     ab0:	90 e0       	ldi	r25, 0x00	; 0
     ab2:	0c 94 87 0d 	jmp	0x1b0e	; 0x1b0e <eeprom_write_byte>
     ab6:	08 95       	ret

00000ab8 <get_abs_time_ms>:
     ab8:	e6 df       	rcall	.-52     	; 0xa86 <cpu_irq_save>
     aba:	e8 2f       	mov	r30, r24
     abc:	20 91 78 01 	lds	r18, 0x0178	; 0x800178 <g_timer_abs_msb>
     ac0:	30 91 79 01 	lds	r19, 0x0179	; 0x800179 <g_timer_abs_msb+0x1>
     ac4:	40 91 7a 01 	lds	r20, 0x017A	; 0x80017a <g_timer_abs_msb+0x2>
     ac8:	50 91 7b 01 	lds	r21, 0x017B	; 0x80017b <g_timer_abs_msb+0x3>
     acc:	60 91 7c 01 	lds	r22, 0x017C	; 0x80017c <g_timer_abs_msb+0x4>
     ad0:	70 91 7d 01 	lds	r23, 0x017D	; 0x80017d <g_timer_abs_msb+0x5>
     ad4:	80 91 7e 01 	lds	r24, 0x017E	; 0x80017e <g_timer_abs_msb+0x6>
     ad8:	90 91 7f 01 	lds	r25, 0x017F	; 0x80017f <g_timer_abs_msb+0x7>
     adc:	ef bf       	out	0x3f, r30	; 63
     ade:	08 95       	ret

00000ae0 <task>:
     ae0:	2f 92       	push	r2
     ae2:	3f 92       	push	r3
     ae4:	4f 92       	push	r4
     ae6:	5f 92       	push	r5
     ae8:	6f 92       	push	r6
     aea:	7f 92       	push	r7
     aec:	8f 92       	push	r8
     aee:	9f 92       	push	r9
     af0:	af 92       	push	r10
     af2:	bf 92       	push	r11
     af4:	cf 92       	push	r12
     af6:	df 92       	push	r13
     af8:	ef 92       	push	r14
     afa:	ff 92       	push	r15
     afc:	0f 93       	push	r16
     afe:	1f 93       	push	r17
     b00:	cf 93       	push	r28
     b02:	df 93       	push	r29
     b04:	00 d0       	rcall	.+0      	; 0xb06 <task+0x26>
     b06:	00 d0       	rcall	.+0      	; 0xb08 <task+0x28>
     b08:	cd b7       	in	r28, 0x3d	; 61
     b0a:	de b7       	in	r29, 0x3e	; 62
     b0c:	29 83       	std	Y+1, r18	; 0x01
     b0e:	3a 83       	std	Y+2, r19	; 0x02
     b10:	94 2e       	mov	r9, r20
     b12:	85 2e       	mov	r8, r21
     b14:	76 2e       	mov	r7, r22
     b16:	67 2e       	mov	r6, r23
     b18:	58 2e       	mov	r5, r24
     b1a:	49 2e       	mov	r4, r25
     b1c:	20 91 37 01 	lds	r18, 0x0137	; 0x800137 <s_timer_task_next.3065>
     b20:	30 91 38 01 	lds	r19, 0x0138	; 0x800138 <s_timer_task_next.3065+0x1>
     b24:	40 91 39 01 	lds	r20, 0x0139	; 0x800139 <s_timer_task_next.3065+0x2>
     b28:	50 91 3a 01 	lds	r21, 0x013A	; 0x80013a <s_timer_task_next.3065+0x3>
     b2c:	60 91 3b 01 	lds	r22, 0x013B	; 0x80013b <s_timer_task_next.3065+0x4>
     b30:	70 91 3c 01 	lds	r23, 0x013C	; 0x80013c <s_timer_task_next.3065+0x5>
     b34:	80 91 3d 01 	lds	r24, 0x013D	; 0x80013d <s_timer_task_next.3065+0x6>
     b38:	90 91 3e 01 	lds	r25, 0x013E	; 0x80013e <s_timer_task_next.3065+0x7>
     b3c:	a9 80       	ldd	r10, Y+1	; 0x01
     b3e:	ba 80       	ldd	r11, Y+2	; 0x02
     b40:	c9 2c       	mov	r12, r9
     b42:	d8 2c       	mov	r13, r8
     b44:	e7 2c       	mov	r14, r7
     b46:	f6 2c       	mov	r15, r6
     b48:	05 2d       	mov	r16, r5
     b4a:	14 2d       	mov	r17, r4
     b4c:	c3 d7       	rcall	.+3974   	; 0x1ad4 <__cmpdi2>
     b4e:	11 f0       	breq	.+4      	; 0xb54 <task+0x74>
     b50:	08 f0       	brcs	.+2      	; 0xb54 <task+0x74>
     b52:	b1 c4       	rjmp	.+2402   	; 0x14b6 <task+0x9d6>
     b54:	bb 82       	std	Y+3, r11	; 0x03
     b56:	aa 82       	std	Y+2, r10	; 0x02
     b58:	95 01       	movw	r18, r10
     b5a:	49 2d       	mov	r20, r9
     b5c:	58 2d       	mov	r21, r8
     b5e:	67 2d       	mov	r22, r7
     b60:	76 2d       	mov	r23, r6
     b62:	85 2d       	mov	r24, r5
     b64:	94 2d       	mov	r25, r4
     b66:	a2 e3       	ldi	r26, 0x32	; 50
     b68:	a0 d7       	rcall	.+3904   	; 0x1aaa <__adddi3_s8>
     b6a:	20 93 37 01 	sts	0x0137, r18	; 0x800137 <s_timer_task_next.3065>
     b6e:	30 93 38 01 	sts	0x0138, r19	; 0x800138 <s_timer_task_next.3065+0x1>
     b72:	40 93 39 01 	sts	0x0139, r20	; 0x800139 <s_timer_task_next.3065+0x2>
     b76:	50 93 3a 01 	sts	0x013A, r21	; 0x80013a <s_timer_task_next.3065+0x3>
     b7a:	60 93 3b 01 	sts	0x013B, r22	; 0x80013b <s_timer_task_next.3065+0x4>
     b7e:	70 93 3c 01 	sts	0x013C, r23	; 0x80013c <s_timer_task_next.3065+0x5>
     b82:	80 93 3d 01 	sts	0x013D, r24	; 0x80013d <s_timer_task_next.3065+0x6>
     b86:	90 93 3e 01 	sts	0x013E, r25	; 0x80013e <s_timer_task_next.3065+0x7>
     b8a:	7d df       	rcall	.-262    	; 0xa86 <cpu_irq_save>
     b8c:	23 b1       	in	r18, 0x03	; 3
     b8e:	99 b1       	in	r25, 0x09	; 9
     b90:	8f bf       	out	0x3f, r24	; 63
     b92:	e0 91 36 01 	lds	r30, 0x0136	; 0x800136 <s_i_fb_t2.3073>
     b96:	b0 90 35 01 	lds	r11, 0x0135	; 0x800135 <s_i_fb_t1.3072>
     b9a:	b0 92 36 01 	sts	0x0136, r11	; 0x800136 <s_i_fb_t2.3073>
     b9e:	10 91 34 01 	lds	r17, 0x0134	; 0x800134 <s_i_fb_t0.3071>
     ba2:	10 93 35 01 	sts	0x0135, r17	; 0x800135 <s_i_fb_t1.3072>
     ba6:	f0 90 33 01 	lds	r15, 0x0133	; 0x800133 <s_i_os_t1.3081>
     baa:	f0 91 32 01 	lds	r31, 0x0132	; 0x800132 <s_i_os_t0.3080>
     bae:	f0 93 33 01 	sts	0x0133, r31	; 0x800133 <s_i_os_t1.3081>
     bb2:	80 91 31 01 	lds	r24, 0x0131	; 0x800131 <s_i_uv_t1.3077>
     bb6:	b0 91 30 01 	lds	r27, 0x0130	; 0x800130 <s_i_uv_t0.3076>
     bba:	b0 93 31 01 	sts	0x0131, r27	; 0x800131 <s_i_uv_t1.3077>
     bbe:	20 90 2f 01 	lds	r2, 0x012F	; 0x80012f <s_i_sk_g_t1.3085>
     bc2:	60 91 2e 01 	lds	r22, 0x012E	; 0x80012e <s_i_sk_g_t0.3084>
     bc6:	60 93 2f 01 	sts	0x012F, r22	; 0x80012f <s_i_sk_g_t1.3085>
     bca:	30 90 2d 01 	lds	r3, 0x012D	; 0x80012d <s_i_sk_o_t1.3089>
     bce:	50 91 2c 01 	lds	r21, 0x012C	; 0x80012c <s_i_sk_o_t0.3088>
     bd2:	50 93 2d 01 	sts	0x012D, r21	; 0x80012d <s_i_sk_o_t1.3089>
     bd6:	a0 90 2b 01 	lds	r10, 0x012B	; 0x80012b <s_i_sa_g_t1.3093>
     bda:	40 91 2a 01 	lds	r20, 0x012A	; 0x80012a <s_i_sa_g_t0.3092>
     bde:	40 93 2b 01 	sts	0x012B, r20	; 0x80012b <s_i_sa_g_t1.3093>
     be2:	00 91 29 01 	lds	r16, 0x0129	; 0x800129 <s_i_sa_o_t1.3097>
     be6:	09 83       	std	Y+1, r16	; 0x01
     be8:	30 91 28 01 	lds	r19, 0x0128	; 0x800128 <s_i_sa_o_t0.3096>
     bec:	30 93 29 01 	sts	0x0129, r19	; 0x800129 <s_i_sa_o_t1.3097>
     bf0:	71 e0       	ldi	r23, 0x01	; 1
     bf2:	a9 2f       	mov	r26, r25
     bf4:	a0 71       	andi	r26, 0x10	; 16
     bf6:	ca 2e       	mov	r12, r26
     bf8:	94 fd       	sbrc	r25, 4
     bfa:	70 e0       	ldi	r23, 0x00	; 0
     bfc:	70 93 34 01 	sts	0x0134, r23	; 0x800134 <s_i_fb_t0.3071>
     c00:	a0 91 70 01 	lds	r26, 0x0170	; 0x800170 <g_adc_12v_under>
     c04:	a0 93 30 01 	sts	0x0130, r26	; 0x800130 <s_i_uv_t0.3076>
     c08:	70 91 67 01 	lds	r23, 0x0167	; 0x800167 <g_speed_over>
     c0c:	70 93 32 01 	sts	0x0132, r23	; 0x800132 <s_i_os_t0.3080>
     c10:	ee 24       	eor	r14, r14
     c12:	e3 94       	inc	r14
     c14:	02 2f       	mov	r16, r18
     c16:	00 74       	andi	r16, 0x40	; 64
     c18:	d0 2e       	mov	r13, r16
     c1a:	26 fd       	sbrc	r18, 6
     c1c:	e1 2c       	mov	r14, r1
     c1e:	e0 92 2e 01 	sts	0x012E, r14	; 0x80012e <s_i_sk_g_t0.3084>
     c22:	02 2f       	mov	r16, r18
     c24:	00 95       	com	r16
     c26:	00 1f       	adc	r16, r16
     c28:	00 27       	eor	r16, r16
     c2a:	00 1f       	adc	r16, r16
     c2c:	00 93 2c 01 	sts	0x012C, r16	; 0x80012c <s_i_sk_o_t0.3088>
     c30:	01 e0       	ldi	r16, 0x01	; 1
     c32:	0c 83       	std	Y+4, r16	; 0x04
     c34:	09 2f       	mov	r16, r25
     c36:	00 74       	andi	r16, 0x40	; 64
     c38:	e0 2e       	mov	r14, r16
     c3a:	96 fd       	sbrc	r25, 6
     c3c:	1c 82       	std	Y+4, r1	; 0x04
     c3e:	0c 81       	ldd	r16, Y+4	; 0x04
     c40:	00 93 2a 01 	sts	0x012A, r16	; 0x80012a <s_i_sa_g_t0.3092>
     c44:	09 2f       	mov	r16, r25
     c46:	00 95       	com	r16
     c48:	00 1f       	adc	r16, r16
     c4a:	00 27       	eor	r16, r16
     c4c:	00 1f       	adc	r16, r16
     c4e:	00 93 28 01 	sts	0x0128, r16	; 0x800128 <s_i_sa_o_t0.3096>
     c52:	bb 20       	and	r11, r11
     c54:	41 f0       	breq	.+16     	; 0xc66 <task+0x186>
     c56:	11 23       	and	r17, r17
     c58:	59 f0       	breq	.+22     	; 0xc70 <task+0x190>
     c5a:	c1 10       	cpse	r12, r1
     c5c:	09 c0       	rjmp	.+18     	; 0xc70 <task+0x190>
     c5e:	11 e0       	ldi	r17, 0x01	; 1
     c60:	10 93 27 01 	sts	0x0127, r17	; 0x800127 <s_i_fb.3070>
     c64:	05 c0       	rjmp	.+10     	; 0xc70 <task+0x190>
     c66:	11 11       	cpse	r17, r1
     c68:	03 c0       	rjmp	.+6      	; 0xc70 <task+0x190>
     c6a:	c1 10       	cpse	r12, r1
     c6c:	10 92 27 01 	sts	0x0127, r1	; 0x800127 <s_i_fb.3070>
     c70:	88 23       	and	r24, r24
     c72:	41 f0       	breq	.+16     	; 0xc84 <task+0x1a4>
     c74:	bb 23       	and	r27, r27
     c76:	61 f0       	breq	.+24     	; 0xc90 <task+0x1b0>
     c78:	aa 23       	and	r26, r26
     c7a:	51 f0       	breq	.+20     	; 0xc90 <task+0x1b0>
     c7c:	a1 e0       	ldi	r26, 0x01	; 1
     c7e:	a0 93 26 01 	sts	0x0126, r26	; 0x800126 <s_i_uv.3075>
     c82:	06 c0       	rjmp	.+12     	; 0xc90 <task+0x1b0>
     c84:	b1 11       	cpse	r27, r1
     c86:	04 c0       	rjmp	.+8      	; 0xc90 <task+0x1b0>
     c88:	a1 11       	cpse	r26, r1
     c8a:	02 c0       	rjmp	.+4      	; 0xc90 <task+0x1b0>
     c8c:	10 92 26 01 	sts	0x0126, r1	; 0x800126 <s_i_uv.3075>
     c90:	ff 20       	and	r15, r15
     c92:	41 f0       	breq	.+16     	; 0xca4 <task+0x1c4>
     c94:	ff 23       	and	r31, r31
     c96:	61 f0       	breq	.+24     	; 0xcb0 <task+0x1d0>
     c98:	77 23       	and	r23, r23
     c9a:	51 f0       	breq	.+20     	; 0xcb0 <task+0x1d0>
     c9c:	71 e0       	ldi	r23, 0x01	; 1
     c9e:	70 93 25 01 	sts	0x0125, r23	; 0x800125 <s_i_os.3079>
     ca2:	06 c0       	rjmp	.+12     	; 0xcb0 <task+0x1d0>
     ca4:	f1 11       	cpse	r31, r1
     ca6:	04 c0       	rjmp	.+8      	; 0xcb0 <task+0x1d0>
     ca8:	71 11       	cpse	r23, r1
     caa:	02 c0       	rjmp	.+4      	; 0xcb0 <task+0x1d0>
     cac:	10 92 25 01 	sts	0x0125, r1	; 0x800125 <s_i_os.3079>
     cb0:	22 20       	and	r2, r2
     cb2:	41 f0       	breq	.+16     	; 0xcc4 <task+0x1e4>
     cb4:	66 23       	and	r22, r22
     cb6:	59 f0       	breq	.+22     	; 0xcce <task+0x1ee>
     cb8:	d1 10       	cpse	r13, r1
     cba:	09 c0       	rjmp	.+18     	; 0xcce <task+0x1ee>
     cbc:	61 e0       	ldi	r22, 0x01	; 1
     cbe:	60 93 24 01 	sts	0x0124, r22	; 0x800124 <s_i_sk_g.3083>
     cc2:	05 c0       	rjmp	.+10     	; 0xcce <task+0x1ee>
     cc4:	61 11       	cpse	r22, r1
     cc6:	03 c0       	rjmp	.+6      	; 0xcce <task+0x1ee>
     cc8:	d1 10       	cpse	r13, r1
     cca:	10 92 24 01 	sts	0x0124, r1	; 0x800124 <s_i_sk_g.3083>
     cce:	33 20       	and	r3, r3
     cd0:	41 f0       	breq	.+16     	; 0xce2 <task+0x202>
     cd2:	55 23       	and	r21, r21
     cd4:	59 f0       	breq	.+22     	; 0xcec <task+0x20c>
     cd6:	27 fd       	sbrc	r18, 7
     cd8:	09 c0       	rjmp	.+18     	; 0xcec <task+0x20c>
     cda:	21 e0       	ldi	r18, 0x01	; 1
     cdc:	20 93 23 01 	sts	0x0123, r18	; 0x800123 <s_i_sk_o.3087>
     ce0:	05 c0       	rjmp	.+10     	; 0xcec <task+0x20c>
     ce2:	51 11       	cpse	r21, r1
     ce4:	03 c0       	rjmp	.+6      	; 0xcec <task+0x20c>
     ce6:	27 fd       	sbrc	r18, 7
     ce8:	10 92 23 01 	sts	0x0123, r1	; 0x800123 <s_i_sk_o.3087>
     cec:	aa 20       	and	r10, r10
     cee:	41 f0       	breq	.+16     	; 0xd00 <task+0x220>
     cf0:	44 23       	and	r20, r20
     cf2:	59 f0       	breq	.+22     	; 0xd0a <task+0x22a>
     cf4:	e1 10       	cpse	r14, r1
     cf6:	09 c0       	rjmp	.+18     	; 0xd0a <task+0x22a>
     cf8:	21 e0       	ldi	r18, 0x01	; 1
     cfa:	20 93 22 01 	sts	0x0122, r18	; 0x800122 <s_i_sa_g.3091>
     cfe:	05 c0       	rjmp	.+10     	; 0xd0a <task+0x22a>
     d00:	41 11       	cpse	r20, r1
     d02:	03 c0       	rjmp	.+6      	; 0xd0a <task+0x22a>
     d04:	e1 10       	cpse	r14, r1
     d06:	10 92 22 01 	sts	0x0122, r1	; 0x800122 <s_i_sa_g.3091>
     d0a:	29 81       	ldd	r18, Y+1	; 0x01
     d0c:	22 23       	and	r18, r18
     d0e:	41 f0       	breq	.+16     	; 0xd20 <task+0x240>
     d10:	33 23       	and	r19, r19
     d12:	59 f0       	breq	.+22     	; 0xd2a <task+0x24a>
     d14:	97 fd       	sbrc	r25, 7
     d16:	09 c0       	rjmp	.+18     	; 0xd2a <task+0x24a>
     d18:	91 e0       	ldi	r25, 0x01	; 1
     d1a:	90 93 21 01 	sts	0x0121, r25	; 0x800121 <s_i_sa_o.3095>
     d1e:	05 c0       	rjmp	.+10     	; 0xd2a <task+0x24a>
     d20:	31 11       	cpse	r19, r1
     d22:	03 c0       	rjmp	.+6      	; 0xd2a <task+0x24a>
     d24:	97 fd       	sbrc	r25, 7
     d26:	10 92 21 01 	sts	0x0121, r1	; 0x800121 <s_i_sa_o.3095>
     d2a:	90 91 20 01 	lds	r25, 0x0120	; 0x800120 <s_fsm_state.3068>
     d2e:	92 31       	cpi	r25, 0x12	; 18
     d30:	09 f4       	brne	.+2      	; 0xd34 <task+0x254>
     d32:	72 c1       	rjmp	.+740    	; 0x1018 <task+0x538>
     d34:	58 f4       	brcc	.+22     	; 0xd4c <task+0x26c>
     d36:	91 30       	cpi	r25, 0x01	; 1
     d38:	09 f4       	brne	.+2      	; 0xd3c <task+0x25c>
     d3a:	43 c0       	rjmp	.+134    	; 0xdc2 <task+0x2e2>
     d3c:	b0 f0       	brcs	.+44     	; 0xd6a <task+0x28a>
     d3e:	90 31       	cpi	r25, 0x10	; 16
     d40:	09 f4       	brne	.+2      	; 0xd44 <task+0x264>
     d42:	87 c0       	rjmp	.+270    	; 0xe52 <task+0x372>
     d44:	91 31       	cpi	r25, 0x11	; 17
     d46:	09 f4       	brne	.+2      	; 0xd4a <task+0x26a>
     d48:	10 c1       	rjmp	.+544    	; 0xf6a <task+0x48a>
     d4a:	9c c2       	rjmp	.+1336   	; 0x1284 <task+0x7a4>
     d4c:	91 32       	cpi	r25, 0x21	; 33
     d4e:	09 f4       	brne	.+2      	; 0xd52 <task+0x272>
     d50:	ad c1       	rjmp	.+858    	; 0x10ac <task+0x5cc>
     d52:	20 f4       	brcc	.+8      	; 0xd5c <task+0x27c>
     d54:	90 32       	cpi	r25, 0x20	; 32
     d56:	09 f4       	brne	.+2      	; 0xd5a <task+0x27a>
     d58:	67 c1       	rjmp	.+718    	; 0x1028 <task+0x548>
     d5a:	94 c2       	rjmp	.+1320   	; 0x1284 <task+0x7a4>
     d5c:	92 32       	cpi	r25, 0x22	; 34
     d5e:	09 f4       	brne	.+2      	; 0xd62 <task+0x282>
     d60:	65 c2       	rjmp	.+1226   	; 0x122c <task+0x74c>
     d62:	93 32       	cpi	r25, 0x23	; 35
     d64:	09 f4       	brne	.+2      	; 0xd68 <task+0x288>
     d66:	8a c2       	rjmp	.+1300   	; 0x127c <task+0x79c>
     d68:	8d c2       	rjmp	.+1306   	; 0x1284 <task+0x7a4>
     d6a:	10 92 1f 01 	sts	0x011F, r1	; 0x80011f <s_o_kl.3099>
     d6e:	10 92 1e 01 	sts	0x011E, r1	; 0x80011e <s_o_pv_g.3100>
     d72:	10 92 1d 01 	sts	0x011D, r1	; 0x80011d <s_o_pv_o.3101>
     d76:	10 92 1c 01 	sts	0x011C, r1	; 0x80011c <s_o_m1.3102>
     d7a:	10 92 1b 01 	sts	0x011B, r1	; 0x80011b <s_o_m2.3103>
     d7e:	80 91 27 01 	lds	r24, 0x0127	; 0x800127 <s_i_fb.3070>
     d82:	81 11       	cpse	r24, r1
     d84:	87 c2       	rjmp	.+1294   	; 0x1294 <task+0x7b4>
     d86:	80 91 26 01 	lds	r24, 0x0126	; 0x800126 <s_i_uv.3075>
     d8a:	81 11       	cpse	r24, r1
     d8c:	83 c2       	rjmp	.+1286   	; 0x1294 <task+0x7b4>
     d8e:	80 91 25 01 	lds	r24, 0x0125	; 0x800125 <s_i_os.3079>
     d92:	81 11       	cpse	r24, r1
     d94:	7f c2       	rjmp	.+1278   	; 0x1294 <task+0x7b4>
     d96:	80 91 22 01 	lds	r24, 0x0122	; 0x800122 <s_i_sa_g.3091>
     d9a:	88 23       	and	r24, r24
     d9c:	09 f4       	brne	.+2      	; 0xda0 <task+0x2c0>
     d9e:	7a c2       	rjmp	.+1268   	; 0x1294 <task+0x7b4>
     da0:	80 91 21 01 	lds	r24, 0x0121	; 0x800121 <s_i_sa_o.3095>
     da4:	81 11       	cpse	r24, r1
     da6:	76 c2       	rjmp	.+1260   	; 0x1294 <task+0x7b4>
     da8:	80 91 24 01 	lds	r24, 0x0124	; 0x800124 <s_i_sk_g.3083>
     dac:	88 23       	and	r24, r24
     dae:	09 f4       	brne	.+2      	; 0xdb2 <task+0x2d2>
     db0:	71 c2       	rjmp	.+1250   	; 0x1294 <task+0x7b4>
     db2:	80 91 23 01 	lds	r24, 0x0123	; 0x800123 <s_i_sk_o.3087>
     db6:	81 11       	cpse	r24, r1
     db8:	6d c2       	rjmp	.+1242   	; 0x1294 <task+0x7b4>
     dba:	81 e0       	ldi	r24, 0x01	; 1
     dbc:	80 93 20 01 	sts	0x0120, r24	; 0x800120 <s_fsm_state.3068>
     dc0:	63 c2       	rjmp	.+1222   	; 0x1288 <task+0x7a8>
     dc2:	90 91 27 01 	lds	r25, 0x0127	; 0x800127 <s_i_fb.3070>
     dc6:	99 23       	and	r25, r25
     dc8:	41 f0       	breq	.+16     	; 0xdda <task+0x2fa>
     dca:	20 91 26 01 	lds	r18, 0x0126	; 0x800126 <s_i_uv.3075>
     dce:	21 11       	cpse	r18, r1
     dd0:	04 c0       	rjmp	.+8      	; 0xdda <task+0x2fa>
     dd2:	20 91 25 01 	lds	r18, 0x0125	; 0x800125 <s_i_os.3079>
     dd6:	22 23       	and	r18, r18
     dd8:	a1 f0       	breq	.+40     	; 0xe02 <task+0x322>
     dda:	10 92 13 01 	sts	0x0113, r1	; 0x800113 <s_timer_fb.3066>
     dde:	10 92 14 01 	sts	0x0114, r1	; 0x800114 <s_timer_fb.3066+0x1>
     de2:	10 92 15 01 	sts	0x0115, r1	; 0x800115 <s_timer_fb.3066+0x2>
     de6:	10 92 16 01 	sts	0x0116, r1	; 0x800116 <s_timer_fb.3066+0x3>
     dea:	10 92 17 01 	sts	0x0117, r1	; 0x800117 <s_timer_fb.3066+0x4>
     dee:	10 92 18 01 	sts	0x0118, r1	; 0x800118 <s_timer_fb.3066+0x5>
     df2:	10 92 19 01 	sts	0x0119, r1	; 0x800119 <s_timer_fb.3066+0x6>
     df6:	10 92 1a 01 	sts	0x011A, r1	; 0x80011a <s_timer_fb.3066+0x7>
     dfa:	99 23       	and	r25, r25
     dfc:	09 f4       	brne	.+2      	; 0xe00 <task+0x320>
     dfe:	44 c2       	rjmp	.+1160   	; 0x1288 <task+0x7a8>
     e00:	7b c2       	rjmp	.+1270   	; 0x12f8 <task+0x818>
     e02:	ee 23       	and	r30, r30
     e04:	29 f0       	breq	.+10     	; 0xe10 <task+0x330>
     e06:	81 11       	cpse	r24, r1
     e08:	03 c0       	rjmp	.+6      	; 0xe10 <task+0x330>
     e0a:	ff 20       	and	r15, r15
     e0c:	09 f4       	brne	.+2      	; 0xe10 <task+0x330>
     e0e:	74 c2       	rjmp	.+1256   	; 0x12f8 <task+0x818>
     e10:	2a 81       	ldd	r18, Y+2	; 0x02
     e12:	3b 81       	ldd	r19, Y+3	; 0x03
     e14:	49 2d       	mov	r20, r9
     e16:	58 2d       	mov	r21, r8
     e18:	67 2d       	mov	r22, r7
     e1a:	76 2d       	mov	r23, r6
     e1c:	85 2d       	mov	r24, r5
     e1e:	94 2d       	mov	r25, r4
     e20:	2c 50       	subi	r18, 0x0C	; 12
     e22:	3e 4f       	sbci	r19, 0xFE	; 254
     e24:	4f 4f       	sbci	r20, 0xFF	; 255
     e26:	5f 4f       	sbci	r21, 0xFF	; 255
     e28:	6f 4f       	sbci	r22, 0xFF	; 255
     e2a:	7f 4f       	sbci	r23, 0xFF	; 255
     e2c:	8f 4f       	sbci	r24, 0xFF	; 255
     e2e:	9f 4f       	sbci	r25, 0xFF	; 255
     e30:	20 93 13 01 	sts	0x0113, r18	; 0x800113 <s_timer_fb.3066>
     e34:	30 93 14 01 	sts	0x0114, r19	; 0x800114 <s_timer_fb.3066+0x1>
     e38:	40 93 15 01 	sts	0x0115, r20	; 0x800115 <s_timer_fb.3066+0x2>
     e3c:	50 93 16 01 	sts	0x0116, r21	; 0x800116 <s_timer_fb.3066+0x3>
     e40:	60 93 17 01 	sts	0x0117, r22	; 0x800117 <s_timer_fb.3066+0x4>
     e44:	70 93 18 01 	sts	0x0118, r23	; 0x800118 <s_timer_fb.3066+0x5>
     e48:	80 93 19 01 	sts	0x0119, r24	; 0x800119 <s_timer_fb.3066+0x6>
     e4c:	90 93 1a 01 	sts	0x011A, r25	; 0x80011a <s_timer_fb.3066+0x7>
     e50:	53 c2       	rjmp	.+1190   	; 0x12f8 <task+0x818>
     e52:	a0 90 0b 01 	lds	r10, 0x010B	; 0x80010b <s_timer_pv.3067>
     e56:	b0 90 0c 01 	lds	r11, 0x010C	; 0x80010c <s_timer_pv.3067+0x1>
     e5a:	c0 90 0d 01 	lds	r12, 0x010D	; 0x80010d <s_timer_pv.3067+0x2>
     e5e:	d0 90 0e 01 	lds	r13, 0x010E	; 0x80010e <s_timer_pv.3067+0x3>
     e62:	e0 90 0f 01 	lds	r14, 0x010F	; 0x80010f <s_timer_pv.3067+0x4>
     e66:	f0 90 10 01 	lds	r15, 0x0110	; 0x800110 <s_timer_pv.3067+0x5>
     e6a:	00 91 11 01 	lds	r16, 0x0111	; 0x800111 <s_timer_pv.3067+0x6>
     e6e:	10 91 12 01 	lds	r17, 0x0112	; 0x800112 <s_timer_pv.3067+0x7>
     e72:	95 01       	movw	r18, r10
     e74:	a6 01       	movw	r20, r12
     e76:	b7 01       	movw	r22, r14
     e78:	c8 01       	movw	r24, r16
     e7a:	a0 e0       	ldi	r26, 0x00	; 0
     e7c:	34 d6       	rcall	.+3176   	; 0x1ae6 <__cmpdi2_s8>
     e7e:	61 f0       	breq	.+24     	; 0xe98 <task+0x3b8>
     e80:	2a 81       	ldd	r18, Y+2	; 0x02
     e82:	3b 81       	ldd	r19, Y+3	; 0x03
     e84:	49 2d       	mov	r20, r9
     e86:	58 2d       	mov	r21, r8
     e88:	67 2d       	mov	r22, r7
     e8a:	76 2d       	mov	r23, r6
     e8c:	85 2d       	mov	r24, r5
     e8e:	94 2d       	mov	r25, r4
     e90:	21 d6       	rcall	.+3138   	; 0x1ad4 <__cmpdi2>
     e92:	10 f0       	brcs	.+4      	; 0xe98 <task+0x3b8>
     e94:	10 92 1d 01 	sts	0x011D, r1	; 0x80011d <s_o_pv_o.3101>
     e98:	f0 91 27 01 	lds	r31, 0x0127	; 0x800127 <s_i_fb.3070>
     e9c:	f1 11       	cpse	r31, r1
     e9e:	11 c0       	rjmp	.+34     	; 0xec2 <task+0x3e2>
     ea0:	10 92 13 01 	sts	0x0113, r1	; 0x800113 <s_timer_fb.3066>
     ea4:	10 92 14 01 	sts	0x0114, r1	; 0x800114 <s_timer_fb.3066+0x1>
     ea8:	10 92 15 01 	sts	0x0115, r1	; 0x800115 <s_timer_fb.3066+0x2>
     eac:	10 92 16 01 	sts	0x0116, r1	; 0x800116 <s_timer_fb.3066+0x3>
     eb0:	10 92 17 01 	sts	0x0117, r1	; 0x800117 <s_timer_fb.3066+0x4>
     eb4:	10 92 18 01 	sts	0x0118, r1	; 0x800118 <s_timer_fb.3066+0x5>
     eb8:	10 92 19 01 	sts	0x0119, r1	; 0x800119 <s_timer_fb.3066+0x6>
     ebc:	10 92 1a 01 	sts	0x011A, r1	; 0x80011a <s_timer_fb.3066+0x7>
     ec0:	22 c0       	rjmp	.+68     	; 0xf06 <task+0x426>
     ec2:	e1 11       	cpse	r30, r1
     ec4:	20 c0       	rjmp	.+64     	; 0xf06 <task+0x426>
     ec6:	2a 81       	ldd	r18, Y+2	; 0x02
     ec8:	3b 81       	ldd	r19, Y+3	; 0x03
     eca:	49 2d       	mov	r20, r9
     ecc:	58 2d       	mov	r21, r8
     ece:	67 2d       	mov	r22, r7
     ed0:	76 2d       	mov	r23, r6
     ed2:	85 2d       	mov	r24, r5
     ed4:	94 2d       	mov	r25, r4
     ed6:	28 51       	subi	r18, 0x18	; 24
     ed8:	3c 4f       	sbci	r19, 0xFC	; 252
     eda:	4f 4f       	sbci	r20, 0xFF	; 255
     edc:	5f 4f       	sbci	r21, 0xFF	; 255
     ede:	6f 4f       	sbci	r22, 0xFF	; 255
     ee0:	7f 4f       	sbci	r23, 0xFF	; 255
     ee2:	8f 4f       	sbci	r24, 0xFF	; 255
     ee4:	9f 4f       	sbci	r25, 0xFF	; 255
     ee6:	20 93 13 01 	sts	0x0113, r18	; 0x800113 <s_timer_fb.3066>
     eea:	30 93 14 01 	sts	0x0114, r19	; 0x800114 <s_timer_fb.3066+0x1>
     eee:	40 93 15 01 	sts	0x0115, r20	; 0x800115 <s_timer_fb.3066+0x2>
     ef2:	50 93 16 01 	sts	0x0116, r21	; 0x800116 <s_timer_fb.3066+0x3>
     ef6:	60 93 17 01 	sts	0x0117, r22	; 0x800117 <s_timer_fb.3066+0x4>
     efa:	70 93 18 01 	sts	0x0118, r23	; 0x800118 <s_timer_fb.3066+0x5>
     efe:	80 93 19 01 	sts	0x0119, r24	; 0x800119 <s_timer_fb.3066+0x6>
     f02:	90 93 1a 01 	sts	0x011A, r25	; 0x80011a <s_timer_fb.3066+0x7>
     f06:	80 91 23 01 	lds	r24, 0x0123	; 0x800123 <s_i_sk_o.3087>
     f0a:	88 23       	and	r24, r24
     f0c:	09 f4       	brne	.+2      	; 0xf10 <task+0x430>
     f0e:	bc c1       	rjmp	.+888    	; 0x1288 <task+0x7a8>
     f10:	80 91 24 01 	lds	r24, 0x0124	; 0x800124 <s_i_sk_g.3083>
     f14:	81 11       	cpse	r24, r1
     f16:	b8 c1       	rjmp	.+880    	; 0x1288 <task+0x7a8>
     f18:	ff 23       	and	r31, r31
     f1a:	09 f4       	brne	.+2      	; 0xf1e <task+0x43e>
     f1c:	b5 c1       	rjmp	.+874    	; 0x1288 <task+0x7a8>
     f1e:	a0 90 13 01 	lds	r10, 0x0113	; 0x800113 <s_timer_fb.3066>
     f22:	b0 90 14 01 	lds	r11, 0x0114	; 0x800114 <s_timer_fb.3066+0x1>
     f26:	c0 90 15 01 	lds	r12, 0x0115	; 0x800115 <s_timer_fb.3066+0x2>
     f2a:	d0 90 16 01 	lds	r13, 0x0116	; 0x800116 <s_timer_fb.3066+0x3>
     f2e:	e0 90 17 01 	lds	r14, 0x0117	; 0x800117 <s_timer_fb.3066+0x4>
     f32:	f0 90 18 01 	lds	r15, 0x0118	; 0x800118 <s_timer_fb.3066+0x5>
     f36:	00 91 19 01 	lds	r16, 0x0119	; 0x800119 <s_timer_fb.3066+0x6>
     f3a:	10 91 1a 01 	lds	r17, 0x011A	; 0x80011a <s_timer_fb.3066+0x7>
     f3e:	95 01       	movw	r18, r10
     f40:	a6 01       	movw	r20, r12
     f42:	b7 01       	movw	r22, r14
     f44:	c8 01       	movw	r24, r16
     f46:	a0 e0       	ldi	r26, 0x00	; 0
     f48:	ce d5       	rcall	.+2972   	; 0x1ae6 <__cmpdi2_s8>
     f4a:	09 f4       	brne	.+2      	; 0xf4e <task+0x46e>
     f4c:	9d c1       	rjmp	.+826    	; 0x1288 <task+0x7a8>
     f4e:	2a 81       	ldd	r18, Y+2	; 0x02
     f50:	3b 81       	ldd	r19, Y+3	; 0x03
     f52:	49 2d       	mov	r20, r9
     f54:	58 2d       	mov	r21, r8
     f56:	67 2d       	mov	r22, r7
     f58:	76 2d       	mov	r23, r6
     f5a:	85 2d       	mov	r24, r5
     f5c:	94 2d       	mov	r25, r4
     f5e:	ba d5       	rcall	.+2932   	; 0x1ad4 <__cmpdi2>
     f60:	08 f4       	brcc	.+2      	; 0xf64 <task+0x484>
     f62:	92 c1       	rjmp	.+804    	; 0x1288 <task+0x7a8>
     f64:	10 92 1d 01 	sts	0x011D, r1	; 0x80011d <s_o_pv_o.3101>
     f68:	56 c1       	rjmp	.+684    	; 0x1216 <task+0x736>
     f6a:	a0 90 0b 01 	lds	r10, 0x010B	; 0x80010b <s_timer_pv.3067>
     f6e:	b0 90 0c 01 	lds	r11, 0x010C	; 0x80010c <s_timer_pv.3067+0x1>
     f72:	c0 90 0d 01 	lds	r12, 0x010D	; 0x80010d <s_timer_pv.3067+0x2>
     f76:	d0 90 0e 01 	lds	r13, 0x010E	; 0x80010e <s_timer_pv.3067+0x3>
     f7a:	e0 90 0f 01 	lds	r14, 0x010F	; 0x80010f <s_timer_pv.3067+0x4>
     f7e:	f0 90 10 01 	lds	r15, 0x0110	; 0x800110 <s_timer_pv.3067+0x5>
     f82:	00 91 11 01 	lds	r16, 0x0111	; 0x800111 <s_timer_pv.3067+0x6>
     f86:	10 91 12 01 	lds	r17, 0x0112	; 0x800112 <s_timer_pv.3067+0x7>
     f8a:	95 01       	movw	r18, r10
     f8c:	a6 01       	movw	r20, r12
     f8e:	b7 01       	movw	r22, r14
     f90:	c8 01       	movw	r24, r16
     f92:	a0 e0       	ldi	r26, 0x00	; 0
     f94:	a8 d5       	rcall	.+2896   	; 0x1ae6 <__cmpdi2_s8>
     f96:	61 f0       	breq	.+24     	; 0xfb0 <task+0x4d0>
     f98:	2a 81       	ldd	r18, Y+2	; 0x02
     f9a:	3b 81       	ldd	r19, Y+3	; 0x03
     f9c:	49 2d       	mov	r20, r9
     f9e:	58 2d       	mov	r21, r8
     fa0:	67 2d       	mov	r22, r7
     fa2:	76 2d       	mov	r23, r6
     fa4:	85 2d       	mov	r24, r5
     fa6:	94 2d       	mov	r25, r4
     fa8:	95 d5       	rcall	.+2858   	; 0x1ad4 <__cmpdi2>
     faa:	10 f0       	brcs	.+4      	; 0xfb0 <task+0x4d0>
     fac:	10 92 1d 01 	sts	0x011D, r1	; 0x80011d <s_o_pv_o.3101>
     fb0:	80 91 21 01 	lds	r24, 0x0121	; 0x800121 <s_i_sa_o.3095>
     fb4:	88 23       	and	r24, r24
     fb6:	41 f0       	breq	.+16     	; 0xfc8 <task+0x4e8>
     fb8:	10 92 1c 01 	sts	0x011C, r1	; 0x80011c <s_o_m1.3102>
     fbc:	10 92 1b 01 	sts	0x011B, r1	; 0x80011b <s_o_m2.3103>
     fc0:	82 e1       	ldi	r24, 0x12	; 18
     fc2:	80 93 20 01 	sts	0x0120, r24	; 0x800120 <s_fsm_state.3068>
     fc6:	60 c1       	rjmp	.+704    	; 0x1288 <task+0x7a8>
     fc8:	80 91 27 01 	lds	r24, 0x0127	; 0x800127 <s_i_fb.3070>
     fcc:	88 23       	and	r24, r24
     fce:	09 f4       	brne	.+2      	; 0xfd2 <task+0x4f2>
     fd0:	a0 c0       	rjmp	.+320    	; 0x1112 <task+0x632>
     fd2:	e1 11       	cpse	r30, r1
     fd4:	ef c1       	rjmp	.+990    	; 0x13b4 <task+0x8d4>
     fd6:	2a 81       	ldd	r18, Y+2	; 0x02
     fd8:	3b 81       	ldd	r19, Y+3	; 0x03
     fda:	49 2d       	mov	r20, r9
     fdc:	58 2d       	mov	r21, r8
     fde:	67 2d       	mov	r22, r7
     fe0:	76 2d       	mov	r23, r6
     fe2:	85 2d       	mov	r24, r5
     fe4:	94 2d       	mov	r25, r4
     fe6:	28 51       	subi	r18, 0x18	; 24
     fe8:	3c 4f       	sbci	r19, 0xFC	; 252
     fea:	4f 4f       	sbci	r20, 0xFF	; 255
     fec:	5f 4f       	sbci	r21, 0xFF	; 255
     fee:	6f 4f       	sbci	r22, 0xFF	; 255
     ff0:	7f 4f       	sbci	r23, 0xFF	; 255
     ff2:	8f 4f       	sbci	r24, 0xFF	; 255
     ff4:	9f 4f       	sbci	r25, 0xFF	; 255
     ff6:	20 93 13 01 	sts	0x0113, r18	; 0x800113 <s_timer_fb.3066>
     ffa:	30 93 14 01 	sts	0x0114, r19	; 0x800114 <s_timer_fb.3066+0x1>
     ffe:	40 93 15 01 	sts	0x0115, r20	; 0x800115 <s_timer_fb.3066+0x2>
    1002:	50 93 16 01 	sts	0x0116, r21	; 0x800116 <s_timer_fb.3066+0x3>
    1006:	60 93 17 01 	sts	0x0117, r22	; 0x800117 <s_timer_fb.3066+0x4>
    100a:	70 93 18 01 	sts	0x0118, r23	; 0x800118 <s_timer_fb.3066+0x5>
    100e:	80 93 19 01 	sts	0x0119, r24	; 0x800119 <s_timer_fb.3066+0x6>
    1012:	90 93 1a 01 	sts	0x011A, r25	; 0x80011a <s_timer_fb.3066+0x7>
    1016:	ce c1       	rjmp	.+924    	; 0x13b4 <task+0x8d4>
    1018:	80 91 27 01 	lds	r24, 0x0127	; 0x800127 <s_i_fb.3070>
    101c:	81 11       	cpse	r24, r1
    101e:	34 c1       	rjmp	.+616    	; 0x1288 <task+0x7a8>
    1020:	80 e2       	ldi	r24, 0x20	; 32
    1022:	80 93 20 01 	sts	0x0120, r24	; 0x800120 <s_fsm_state.3068>
    1026:	30 c1       	rjmp	.+608    	; 0x1288 <task+0x7a8>
    1028:	90 91 27 01 	lds	r25, 0x0127	; 0x800127 <s_i_fb.3070>
    102c:	99 23       	and	r25, r25
    102e:	21 f0       	breq	.+8      	; 0x1038 <task+0x558>
    1030:	20 91 26 01 	lds	r18, 0x0126	; 0x800126 <s_i_uv.3075>
    1034:	22 23       	and	r18, r18
    1036:	a1 f0       	breq	.+40     	; 0x1060 <task+0x580>
    1038:	10 92 13 01 	sts	0x0113, r1	; 0x800113 <s_timer_fb.3066>
    103c:	10 92 14 01 	sts	0x0114, r1	; 0x800114 <s_timer_fb.3066+0x1>
    1040:	10 92 15 01 	sts	0x0115, r1	; 0x800115 <s_timer_fb.3066+0x2>
    1044:	10 92 16 01 	sts	0x0116, r1	; 0x800116 <s_timer_fb.3066+0x3>
    1048:	10 92 17 01 	sts	0x0117, r1	; 0x800117 <s_timer_fb.3066+0x4>
    104c:	10 92 18 01 	sts	0x0118, r1	; 0x800118 <s_timer_fb.3066+0x5>
    1050:	10 92 19 01 	sts	0x0119, r1	; 0x800119 <s_timer_fb.3066+0x6>
    1054:	10 92 1a 01 	sts	0x011A, r1	; 0x80011a <s_timer_fb.3066+0x7>
    1058:	99 23       	and	r25, r25
    105a:	09 f4       	brne	.+2      	; 0x105e <task+0x57e>
    105c:	15 c1       	rjmp	.+554    	; 0x1288 <task+0x7a8>
    105e:	e2 c1       	rjmp	.+964    	; 0x1424 <task+0x944>
    1060:	ee 23       	and	r30, r30
    1062:	19 f0       	breq	.+6      	; 0x106a <task+0x58a>
    1064:	88 23       	and	r24, r24
    1066:	09 f4       	brne	.+2      	; 0x106a <task+0x58a>
    1068:	dd c1       	rjmp	.+954    	; 0x1424 <task+0x944>
    106a:	2a 81       	ldd	r18, Y+2	; 0x02
    106c:	3b 81       	ldd	r19, Y+3	; 0x03
    106e:	49 2d       	mov	r20, r9
    1070:	58 2d       	mov	r21, r8
    1072:	67 2d       	mov	r22, r7
    1074:	76 2d       	mov	r23, r6
    1076:	85 2d       	mov	r24, r5
    1078:	94 2d       	mov	r25, r4
    107a:	2c 50       	subi	r18, 0x0C	; 12
    107c:	3e 4f       	sbci	r19, 0xFE	; 254
    107e:	4f 4f       	sbci	r20, 0xFF	; 255
    1080:	5f 4f       	sbci	r21, 0xFF	; 255
    1082:	6f 4f       	sbci	r22, 0xFF	; 255
    1084:	7f 4f       	sbci	r23, 0xFF	; 255
    1086:	8f 4f       	sbci	r24, 0xFF	; 255
    1088:	9f 4f       	sbci	r25, 0xFF	; 255
    108a:	20 93 13 01 	sts	0x0113, r18	; 0x800113 <s_timer_fb.3066>
    108e:	30 93 14 01 	sts	0x0114, r19	; 0x800114 <s_timer_fb.3066+0x1>
    1092:	40 93 15 01 	sts	0x0115, r20	; 0x800115 <s_timer_fb.3066+0x2>
    1096:	50 93 16 01 	sts	0x0116, r21	; 0x800116 <s_timer_fb.3066+0x3>
    109a:	60 93 17 01 	sts	0x0117, r22	; 0x800117 <s_timer_fb.3066+0x4>
    109e:	70 93 18 01 	sts	0x0118, r23	; 0x800118 <s_timer_fb.3066+0x5>
    10a2:	80 93 19 01 	sts	0x0119, r24	; 0x800119 <s_timer_fb.3066+0x6>
    10a6:	90 93 1a 01 	sts	0x011A, r25	; 0x80011a <s_timer_fb.3066+0x7>
    10aa:	bc c1       	rjmp	.+888    	; 0x1424 <task+0x944>
    10ac:	80 91 22 01 	lds	r24, 0x0122	; 0x800122 <s_i_sa_g.3091>
    10b0:	88 23       	and	r24, r24
    10b2:	59 f1       	breq	.+86     	; 0x110a <task+0x62a>
    10b4:	10 92 1c 01 	sts	0x011C, r1	; 0x80011c <s_o_m1.3102>
    10b8:	10 92 1b 01 	sts	0x011B, r1	; 0x80011b <s_o_m2.3103>
    10bc:	2a 81       	ldd	r18, Y+2	; 0x02
    10be:	3b 81       	ldd	r19, Y+3	; 0x03
    10c0:	49 2d       	mov	r20, r9
    10c2:	58 2d       	mov	r21, r8
    10c4:	67 2d       	mov	r22, r7
    10c6:	76 2d       	mov	r23, r6
    10c8:	85 2d       	mov	r24, r5
    10ca:	94 2d       	mov	r25, r4
    10cc:	28 51       	subi	r18, 0x18	; 24
    10ce:	3c 4f       	sbci	r19, 0xFC	; 252
    10d0:	4f 4f       	sbci	r20, 0xFF	; 255
    10d2:	5f 4f       	sbci	r21, 0xFF	; 255
    10d4:	6f 4f       	sbci	r22, 0xFF	; 255
    10d6:	7f 4f       	sbci	r23, 0xFF	; 255
    10d8:	8f 4f       	sbci	r24, 0xFF	; 255
    10da:	9f 4f       	sbci	r25, 0xFF	; 255
    10dc:	20 93 0b 01 	sts	0x010B, r18	; 0x80010b <s_timer_pv.3067>
    10e0:	30 93 0c 01 	sts	0x010C, r19	; 0x80010c <s_timer_pv.3067+0x1>
    10e4:	40 93 0d 01 	sts	0x010D, r20	; 0x80010d <s_timer_pv.3067+0x2>
    10e8:	50 93 0e 01 	sts	0x010E, r21	; 0x80010e <s_timer_pv.3067+0x3>
    10ec:	60 93 0f 01 	sts	0x010F, r22	; 0x80010f <s_timer_pv.3067+0x4>
    10f0:	70 93 10 01 	sts	0x0110, r23	; 0x800110 <s_timer_pv.3067+0x5>
    10f4:	80 93 11 01 	sts	0x0111, r24	; 0x800111 <s_timer_pv.3067+0x6>
    10f8:	90 93 12 01 	sts	0x0112, r25	; 0x800112 <s_timer_pv.3067+0x7>
    10fc:	81 e0       	ldi	r24, 0x01	; 1
    10fe:	80 93 1e 01 	sts	0x011E, r24	; 0x80011e <s_o_pv_g.3100>
    1102:	82 e2       	ldi	r24, 0x22	; 34
    1104:	80 93 20 01 	sts	0x0120, r24	; 0x800120 <s_fsm_state.3068>
    1108:	bf c0       	rjmp	.+382    	; 0x1288 <task+0x7a8>
    110a:	f0 91 27 01 	lds	r31, 0x0127	; 0x800127 <s_i_fb.3070>
    110e:	f1 11       	cpse	r31, r1
    1110:	1e c0       	rjmp	.+60     	; 0x114e <task+0x66e>
    1112:	10 92 13 01 	sts	0x0113, r1	; 0x800113 <s_timer_fb.3066>
    1116:	10 92 14 01 	sts	0x0114, r1	; 0x800114 <s_timer_fb.3066+0x1>
    111a:	10 92 15 01 	sts	0x0115, r1	; 0x800115 <s_timer_fb.3066+0x2>
    111e:	10 92 16 01 	sts	0x0116, r1	; 0x800116 <s_timer_fb.3066+0x3>
    1122:	10 92 17 01 	sts	0x0117, r1	; 0x800117 <s_timer_fb.3066+0x4>
    1126:	10 92 18 01 	sts	0x0118, r1	; 0x800118 <s_timer_fb.3066+0x5>
    112a:	10 92 19 01 	sts	0x0119, r1	; 0x800119 <s_timer_fb.3066+0x6>
    112e:	10 92 1a 01 	sts	0x011A, r1	; 0x80011a <s_timer_fb.3066+0x7>
    1132:	10 92 1c 01 	sts	0x011C, r1	; 0x80011c <s_o_m1.3102>
    1136:	10 92 1b 01 	sts	0x011B, r1	; 0x80011b <s_o_m2.3103>
    113a:	ee 23       	and	r30, r30
    113c:	09 f4       	brne	.+2      	; 0x1140 <task+0x660>
    113e:	a4 c0       	rjmp	.+328    	; 0x1288 <task+0x7a8>
    1140:	90 91 0a 01 	lds	r25, 0x010A	; 0x80010a <s_change_dir.3069>
    1144:	81 e0       	ldi	r24, 0x01	; 1
    1146:	89 27       	eor	r24, r25
    1148:	80 93 0a 01 	sts	0x010A, r24	; 0x80010a <s_change_dir.3069>
    114c:	9d c0       	rjmp	.+314    	; 0x1288 <task+0x7a8>
    114e:	e1 11       	cpse	r30, r1
    1150:	20 c0       	rjmp	.+64     	; 0x1192 <task+0x6b2>
    1152:	2a 81       	ldd	r18, Y+2	; 0x02
    1154:	3b 81       	ldd	r19, Y+3	; 0x03
    1156:	49 2d       	mov	r20, r9
    1158:	58 2d       	mov	r21, r8
    115a:	67 2d       	mov	r22, r7
    115c:	76 2d       	mov	r23, r6
    115e:	85 2d       	mov	r24, r5
    1160:	94 2d       	mov	r25, r4
    1162:	28 51       	subi	r18, 0x18	; 24
    1164:	3c 4f       	sbci	r19, 0xFC	; 252
    1166:	4f 4f       	sbci	r20, 0xFF	; 255
    1168:	5f 4f       	sbci	r21, 0xFF	; 255
    116a:	6f 4f       	sbci	r22, 0xFF	; 255
    116c:	7f 4f       	sbci	r23, 0xFF	; 255
    116e:	8f 4f       	sbci	r24, 0xFF	; 255
    1170:	9f 4f       	sbci	r25, 0xFF	; 255
    1172:	20 93 13 01 	sts	0x0113, r18	; 0x800113 <s_timer_fb.3066>
    1176:	30 93 14 01 	sts	0x0114, r19	; 0x800114 <s_timer_fb.3066+0x1>
    117a:	40 93 15 01 	sts	0x0115, r20	; 0x800115 <s_timer_fb.3066+0x2>
    117e:	50 93 16 01 	sts	0x0116, r21	; 0x800116 <s_timer_fb.3066+0x3>
    1182:	60 93 17 01 	sts	0x0117, r22	; 0x800117 <s_timer_fb.3066+0x4>
    1186:	70 93 18 01 	sts	0x0118, r23	; 0x800118 <s_timer_fb.3066+0x5>
    118a:	80 93 19 01 	sts	0x0119, r24	; 0x800119 <s_timer_fb.3066+0x6>
    118e:	90 93 1a 01 	sts	0x011A, r25	; 0x80011a <s_timer_fb.3066+0x7>
    1192:	e0 91 23 01 	lds	r30, 0x0123	; 0x800123 <s_i_sk_o.3087>
    1196:	e1 11       	cpse	r30, r1
    1198:	04 c0       	rjmp	.+8      	; 0x11a2 <task+0x6c2>
    119a:	81 e0       	ldi	r24, 0x01	; 1
    119c:	80 93 1d 01 	sts	0x011D, r24	; 0x80011d <s_o_pv_o.3101>
    11a0:	02 c0       	rjmp	.+4      	; 0x11a6 <task+0x6c6>
    11a2:	10 92 1d 01 	sts	0x011D, r1	; 0x80011d <s_o_pv_o.3101>
    11a6:	ff 23       	and	r31, r31
    11a8:	09 f4       	brne	.+2      	; 0x11ac <task+0x6cc>
    11aa:	6e c0       	rjmp	.+220    	; 0x1288 <task+0x7a8>
    11ac:	a0 90 13 01 	lds	r10, 0x0113	; 0x800113 <s_timer_fb.3066>
    11b0:	b0 90 14 01 	lds	r11, 0x0114	; 0x800114 <s_timer_fb.3066+0x1>
    11b4:	c0 90 15 01 	lds	r12, 0x0115	; 0x800115 <s_timer_fb.3066+0x2>
    11b8:	d0 90 16 01 	lds	r13, 0x0116	; 0x800116 <s_timer_fb.3066+0x3>
    11bc:	e0 90 17 01 	lds	r14, 0x0117	; 0x800117 <s_timer_fb.3066+0x4>
    11c0:	f0 90 18 01 	lds	r15, 0x0118	; 0x800118 <s_timer_fb.3066+0x5>
    11c4:	00 91 19 01 	lds	r16, 0x0119	; 0x800119 <s_timer_fb.3066+0x6>
    11c8:	10 91 1a 01 	lds	r17, 0x011A	; 0x80011a <s_timer_fb.3066+0x7>
    11cc:	95 01       	movw	r18, r10
    11ce:	a6 01       	movw	r20, r12
    11d0:	b7 01       	movw	r22, r14
    11d2:	c8 01       	movw	r24, r16
    11d4:	a0 e0       	ldi	r26, 0x00	; 0
    11d6:	87 d4       	rcall	.+2318   	; 0x1ae6 <__cmpdi2_s8>
    11d8:	09 f4       	brne	.+2      	; 0x11dc <task+0x6fc>
    11da:	56 c0       	rjmp	.+172    	; 0x1288 <task+0x7a8>
    11dc:	2a 81       	ldd	r18, Y+2	; 0x02
    11de:	3b 81       	ldd	r19, Y+3	; 0x03
    11e0:	49 2d       	mov	r20, r9
    11e2:	58 2d       	mov	r21, r8
    11e4:	67 2d       	mov	r22, r7
    11e6:	76 2d       	mov	r23, r6
    11e8:	85 2d       	mov	r24, r5
    11ea:	94 2d       	mov	r25, r4
    11ec:	73 d4       	rcall	.+2278   	; 0x1ad4 <__cmpdi2>
    11ee:	08 f4       	brcc	.+2      	; 0x11f2 <task+0x712>
    11f0:	4b c0       	rjmp	.+150    	; 0x1288 <task+0x7a8>
    11f2:	80 91 0a 01 	lds	r24, 0x010A	; 0x80010a <s_change_dir.3069>
    11f6:	81 11       	cpse	r24, r1
    11f8:	0e c0       	rjmp	.+28     	; 0x1216 <task+0x736>
    11fa:	e1 11       	cpse	r30, r1
    11fc:	04 c0       	rjmp	.+8      	; 0x1206 <task+0x726>
    11fe:	81 e0       	ldi	r24, 0x01	; 1
    1200:	80 93 1d 01 	sts	0x011D, r24	; 0x80011d <s_o_pv_o.3101>
    1204:	41 c0       	rjmp	.+130    	; 0x1288 <task+0x7a8>
    1206:	10 92 1c 01 	sts	0x011C, r1	; 0x80011c <s_o_m1.3102>
    120a:	81 e0       	ldi	r24, 0x01	; 1
    120c:	80 93 1b 01 	sts	0x011B, r24	; 0x80011b <s_o_m2.3103>
    1210:	10 92 1d 01 	sts	0x011D, r1	; 0x80011d <s_o_pv_o.3101>
    1214:	39 c0       	rjmp	.+114    	; 0x1288 <task+0x7a8>
    1216:	81 e0       	ldi	r24, 0x01	; 1
    1218:	80 93 1c 01 	sts	0x011C, r24	; 0x80011c <s_o_m1.3102>
    121c:	10 92 1b 01 	sts	0x011B, r1	; 0x80011b <s_o_m2.3103>
    1220:	10 92 0a 01 	sts	0x010A, r1	; 0x80010a <s_change_dir.3069>
    1224:	81 e1       	ldi	r24, 0x11	; 17
    1226:	80 93 20 01 	sts	0x0120, r24	; 0x800120 <s_fsm_state.3068>
    122a:	2e c0       	rjmp	.+92     	; 0x1288 <task+0x7a8>
    122c:	a0 90 0b 01 	lds	r10, 0x010B	; 0x80010b <s_timer_pv.3067>
    1230:	b0 90 0c 01 	lds	r11, 0x010C	; 0x80010c <s_timer_pv.3067+0x1>
    1234:	c0 90 0d 01 	lds	r12, 0x010D	; 0x80010d <s_timer_pv.3067+0x2>
    1238:	d0 90 0e 01 	lds	r13, 0x010E	; 0x80010e <s_timer_pv.3067+0x3>
    123c:	e0 90 0f 01 	lds	r14, 0x010F	; 0x80010f <s_timer_pv.3067+0x4>
    1240:	f0 90 10 01 	lds	r15, 0x0110	; 0x800110 <s_timer_pv.3067+0x5>
    1244:	00 91 11 01 	lds	r16, 0x0111	; 0x800111 <s_timer_pv.3067+0x6>
    1248:	10 91 12 01 	lds	r17, 0x0112	; 0x800112 <s_timer_pv.3067+0x7>
    124c:	2a 81       	ldd	r18, Y+2	; 0x02
    124e:	3b 81       	ldd	r19, Y+3	; 0x03
    1250:	49 2d       	mov	r20, r9
    1252:	58 2d       	mov	r21, r8
    1254:	67 2d       	mov	r22, r7
    1256:	76 2d       	mov	r23, r6
    1258:	85 2d       	mov	r24, r5
    125a:	94 2d       	mov	r25, r4
    125c:	3b d4       	rcall	.+2166   	; 0x1ad4 <__cmpdi2>
    125e:	10 f0       	brcs	.+4      	; 0x1264 <task+0x784>
    1260:	10 92 1e 01 	sts	0x011E, r1	; 0x80011e <s_o_pv_g.3100>
    1264:	80 91 24 01 	lds	r24, 0x0124	; 0x800124 <s_i_sk_g.3083>
    1268:	88 23       	and	r24, r24
    126a:	71 f0       	breq	.+28     	; 0x1288 <task+0x7a8>
    126c:	10 92 1e 01 	sts	0x011E, r1	; 0x80011e <s_o_pv_g.3100>
    1270:	10 92 1f 01 	sts	0x011F, r1	; 0x80011f <s_o_kl.3099>
    1274:	83 e2       	ldi	r24, 0x23	; 35
    1276:	80 93 20 01 	sts	0x0120, r24	; 0x800120 <s_fsm_state.3068>
    127a:	06 c0       	rjmp	.+12     	; 0x1288 <task+0x7a8>
    127c:	80 91 27 01 	lds	r24, 0x0127	; 0x800127 <s_i_fb.3070>
    1280:	81 11       	cpse	r24, r1
    1282:	02 c0       	rjmp	.+4      	; 0x1288 <task+0x7a8>
    1284:	10 92 20 01 	sts	0x0120, r1	; 0x800120 <s_fsm_state.3068>
    1288:	80 91 1e 01 	lds	r24, 0x011E	; 0x80011e <s_o_pv_g.3100>
    128c:	88 23       	and	r24, r24
    128e:	11 f0       	breq	.+4      	; 0x1294 <task+0x7b4>
    1290:	83 ee       	ldi	r24, 0xE3	; 227
    1292:	01 c0       	rjmp	.+2      	; 0x1296 <task+0x7b6>
    1294:	83 ec       	ldi	r24, 0xC3	; 195
    1296:	90 91 1d 01 	lds	r25, 0x011D	; 0x80011d <s_o_pv_o.3101>
    129a:	99 23       	and	r25, r25
    129c:	19 f0       	breq	.+6      	; 0x12a4 <task+0x7c4>
    129e:	30 e1       	ldi	r19, 0x10	; 16
    12a0:	39 83       	std	Y+1, r19	; 0x01
    12a2:	01 c0       	rjmp	.+2      	; 0x12a6 <task+0x7c6>
    12a4:	19 82       	std	Y+1, r1	; 0x01
    12a6:	99 81       	ldd	r25, Y+1	; 0x01
    12a8:	98 2b       	or	r25, r24
    12aa:	99 83       	std	Y+1, r25	; 0x01
    12ac:	80 91 1c 01 	lds	r24, 0x011C	; 0x80011c <s_o_m1.3102>
    12b0:	88 23       	and	r24, r24
    12b2:	11 f0       	breq	.+4      	; 0x12b8 <task+0x7d8>
    12b4:	28 e0       	ldi	r18, 0x08	; 8
    12b6:	01 c0       	rjmp	.+2      	; 0x12ba <task+0x7da>
    12b8:	20 e0       	ldi	r18, 0x00	; 0
    12ba:	a9 81       	ldd	r26, Y+1	; 0x01
    12bc:	a2 2b       	or	r26, r18
    12be:	a9 83       	std	Y+1, r26	; 0x01
    12c0:	80 91 1b 01 	lds	r24, 0x011B	; 0x80011b <s_o_m2.3103>
    12c4:	88 23       	and	r24, r24
    12c6:	11 f0       	breq	.+4      	; 0x12cc <task+0x7ec>
    12c8:	94 e0       	ldi	r25, 0x04	; 4
    12ca:	01 c0       	rjmp	.+2      	; 0x12ce <task+0x7ee>
    12cc:	90 e0       	ldi	r25, 0x00	; 0
    12ce:	09 81       	ldd	r16, Y+1	; 0x01
    12d0:	09 2b       	or	r16, r25
    12d2:	09 83       	std	Y+1, r16	; 0x01
    12d4:	80 91 1f 01 	lds	r24, 0x011F	; 0x80011f <s_o_kl.3099>
    12d8:	88 23       	and	r24, r24
    12da:	19 f0       	breq	.+6      	; 0x12e2 <task+0x802>
    12dc:	0f ef       	ldi	r16, 0xFF	; 255
    12de:	0a 83       	std	Y+2, r16	; 0x02
    12e0:	02 c0       	rjmp	.+4      	; 0x12e6 <task+0x806>
    12e2:	07 ef       	ldi	r16, 0xF7	; 247
    12e4:	0a 83       	std	Y+2, r16	; 0x02
    12e6:	cf db       	rcall	.-2146   	; 0xa86 <cpu_irq_save>
    12e8:	09 81       	ldd	r16, Y+1	; 0x01
    12ea:	05 b9       	out	0x05, r16	; 5
    12ec:	0a 81       	ldd	r16, Y+2	; 0x02
    12ee:	08 b9       	out	0x08, r16	; 8
    12f0:	9f ef       	ldi	r25, 0xFF	; 255
    12f2:	9b b9       	out	0x0b, r25	; 11
    12f4:	8f bf       	out	0x3f, r24	; 63
    12f6:	df c0       	rjmp	.+446    	; 0x14b6 <task+0x9d6>
    12f8:	80 91 26 01 	lds	r24, 0x0126	; 0x800126 <s_i_uv.3075>
    12fc:	81 11       	cpse	r24, r1
    12fe:	c4 cf       	rjmp	.-120    	; 0x1288 <task+0x7a8>
    1300:	80 91 25 01 	lds	r24, 0x0125	; 0x800125 <s_i_os.3079>
    1304:	81 11       	cpse	r24, r1
    1306:	c0 cf       	rjmp	.-128    	; 0x1288 <task+0x7a8>
    1308:	80 91 22 01 	lds	r24, 0x0122	; 0x800122 <s_i_sa_g.3091>
    130c:	88 23       	and	r24, r24
    130e:	09 f4       	brne	.+2      	; 0x1312 <task+0x832>
    1310:	bb cf       	rjmp	.-138    	; 0x1288 <task+0x7a8>
    1312:	80 91 21 01 	lds	r24, 0x0121	; 0x800121 <s_i_sa_o.3095>
    1316:	81 11       	cpse	r24, r1
    1318:	b7 cf       	rjmp	.-146    	; 0x1288 <task+0x7a8>
    131a:	80 91 24 01 	lds	r24, 0x0124	; 0x800124 <s_i_sk_g.3083>
    131e:	88 23       	and	r24, r24
    1320:	09 f4       	brne	.+2      	; 0x1324 <task+0x844>
    1322:	b2 cf       	rjmp	.-156    	; 0x1288 <task+0x7a8>
    1324:	80 91 23 01 	lds	r24, 0x0123	; 0x800123 <s_i_sk_o.3087>
    1328:	81 11       	cpse	r24, r1
    132a:	ae cf       	rjmp	.-164    	; 0x1288 <task+0x7a8>
    132c:	e1 e0       	ldi	r30, 0x01	; 1
    132e:	e0 93 1f 01 	sts	0x011F, r30	; 0x80011f <s_o_kl.3099>
    1332:	a0 90 13 01 	lds	r10, 0x0113	; 0x800113 <s_timer_fb.3066>
    1336:	b0 90 14 01 	lds	r11, 0x0114	; 0x800114 <s_timer_fb.3066+0x1>
    133a:	c0 90 15 01 	lds	r12, 0x0115	; 0x800115 <s_timer_fb.3066+0x2>
    133e:	d0 90 16 01 	lds	r13, 0x0116	; 0x800116 <s_timer_fb.3066+0x3>
    1342:	e0 90 17 01 	lds	r14, 0x0117	; 0x800117 <s_timer_fb.3066+0x4>
    1346:	f0 90 18 01 	lds	r15, 0x0118	; 0x800118 <s_timer_fb.3066+0x5>
    134a:	00 91 19 01 	lds	r16, 0x0119	; 0x800119 <s_timer_fb.3066+0x6>
    134e:	10 91 1a 01 	lds	r17, 0x011A	; 0x80011a <s_timer_fb.3066+0x7>
    1352:	95 01       	movw	r18, r10
    1354:	a6 01       	movw	r20, r12
    1356:	b7 01       	movw	r22, r14
    1358:	c8 01       	movw	r24, r16
    135a:	a0 e0       	ldi	r26, 0x00	; 0
    135c:	c4 d3       	rcall	.+1928   	; 0x1ae6 <__cmpdi2_s8>
    135e:	09 f4       	brne	.+2      	; 0x1362 <task+0x882>
    1360:	93 cf       	rjmp	.-218    	; 0x1288 <task+0x7a8>
    1362:	2a 81       	ldd	r18, Y+2	; 0x02
    1364:	3b 81       	ldd	r19, Y+3	; 0x03
    1366:	49 2d       	mov	r20, r9
    1368:	58 2d       	mov	r21, r8
    136a:	67 2d       	mov	r22, r7
    136c:	76 2d       	mov	r23, r6
    136e:	85 2d       	mov	r24, r5
    1370:	94 2d       	mov	r25, r4
    1372:	b0 d3       	rcall	.+1888   	; 0x1ad4 <__cmpdi2>
    1374:	08 f4       	brcc	.+2      	; 0x1378 <task+0x898>
    1376:	88 cf       	rjmp	.-240    	; 0x1288 <task+0x7a8>
    1378:	e0 93 1d 01 	sts	0x011D, r30	; 0x80011d <s_o_pv_o.3101>
    137c:	28 51       	subi	r18, 0x18	; 24
    137e:	3c 4f       	sbci	r19, 0xFC	; 252
    1380:	4f 4f       	sbci	r20, 0xFF	; 255
    1382:	5f 4f       	sbci	r21, 0xFF	; 255
    1384:	6f 4f       	sbci	r22, 0xFF	; 255
    1386:	7f 4f       	sbci	r23, 0xFF	; 255
    1388:	8f 4f       	sbci	r24, 0xFF	; 255
    138a:	9f 4f       	sbci	r25, 0xFF	; 255
    138c:	20 93 0b 01 	sts	0x010B, r18	; 0x80010b <s_timer_pv.3067>
    1390:	30 93 0c 01 	sts	0x010C, r19	; 0x80010c <s_timer_pv.3067+0x1>
    1394:	40 93 0d 01 	sts	0x010D, r20	; 0x80010d <s_timer_pv.3067+0x2>
    1398:	50 93 0e 01 	sts	0x010E, r21	; 0x80010e <s_timer_pv.3067+0x3>
    139c:	60 93 0f 01 	sts	0x010F, r22	; 0x80010f <s_timer_pv.3067+0x4>
    13a0:	70 93 10 01 	sts	0x0110, r23	; 0x800110 <s_timer_pv.3067+0x5>
    13a4:	80 93 11 01 	sts	0x0111, r24	; 0x800111 <s_timer_pv.3067+0x6>
    13a8:	90 93 12 01 	sts	0x0112, r25	; 0x800112 <s_timer_pv.3067+0x7>
    13ac:	80 e1       	ldi	r24, 0x10	; 16
    13ae:	80 93 20 01 	sts	0x0120, r24	; 0x800120 <s_fsm_state.3068>
    13b2:	6a cf       	rjmp	.-300    	; 0x1288 <task+0x7a8>
    13b4:	a0 90 13 01 	lds	r10, 0x0113	; 0x800113 <s_timer_fb.3066>
    13b8:	b0 90 14 01 	lds	r11, 0x0114	; 0x800114 <s_timer_fb.3066+0x1>
    13bc:	c0 90 15 01 	lds	r12, 0x0115	; 0x800115 <s_timer_fb.3066+0x2>
    13c0:	d0 90 16 01 	lds	r13, 0x0116	; 0x800116 <s_timer_fb.3066+0x3>
    13c4:	e0 90 17 01 	lds	r14, 0x0117	; 0x800117 <s_timer_fb.3066+0x4>
    13c8:	f0 90 18 01 	lds	r15, 0x0118	; 0x800118 <s_timer_fb.3066+0x5>
    13cc:	00 91 19 01 	lds	r16, 0x0119	; 0x800119 <s_timer_fb.3066+0x6>
    13d0:	10 91 1a 01 	lds	r17, 0x011A	; 0x80011a <s_timer_fb.3066+0x7>
    13d4:	95 01       	movw	r18, r10
    13d6:	a6 01       	movw	r20, r12
    13d8:	b7 01       	movw	r22, r14
    13da:	c8 01       	movw	r24, r16
    13dc:	a0 e0       	ldi	r26, 0x00	; 0
    13de:	83 d3       	rcall	.+1798   	; 0x1ae6 <__cmpdi2_s8>
    13e0:	09 f4       	brne	.+2      	; 0x13e4 <task+0x904>
    13e2:	52 cf       	rjmp	.-348    	; 0x1288 <task+0x7a8>
    13e4:	2a 81       	ldd	r18, Y+2	; 0x02
    13e6:	3b 81       	ldd	r19, Y+3	; 0x03
    13e8:	49 2d       	mov	r20, r9
    13ea:	58 2d       	mov	r21, r8
    13ec:	67 2d       	mov	r22, r7
    13ee:	76 2d       	mov	r23, r6
    13f0:	85 2d       	mov	r24, r5
    13f2:	94 2d       	mov	r25, r4
    13f4:	6f d3       	rcall	.+1758   	; 0x1ad4 <__cmpdi2>
    13f6:	08 f4       	brcc	.+2      	; 0x13fa <task+0x91a>
    13f8:	47 cf       	rjmp	.-370    	; 0x1288 <task+0x7a8>
    13fa:	80 91 0a 01 	lds	r24, 0x010A	; 0x80010a <s_change_dir.3069>
    13fe:	81 11       	cpse	r24, r1
    1400:	06 c0       	rjmp	.+12     	; 0x140e <task+0x92e>
    1402:	81 e0       	ldi	r24, 0x01	; 1
    1404:	80 93 1c 01 	sts	0x011C, r24	; 0x80011c <s_o_m1.3102>
    1408:	10 92 1b 01 	sts	0x011B, r1	; 0x80011b <s_o_m2.3103>
    140c:	3d cf       	rjmp	.-390    	; 0x1288 <task+0x7a8>
    140e:	10 92 1c 01 	sts	0x011C, r1	; 0x80011c <s_o_m1.3102>
    1412:	81 e0       	ldi	r24, 0x01	; 1
    1414:	80 93 1b 01 	sts	0x011B, r24	; 0x80011b <s_o_m2.3103>
    1418:	10 92 0a 01 	sts	0x010A, r1	; 0x80010a <s_change_dir.3069>
    141c:	81 e2       	ldi	r24, 0x21	; 33
    141e:	80 93 20 01 	sts	0x0120, r24	; 0x800120 <s_fsm_state.3068>
    1422:	32 cf       	rjmp	.-412    	; 0x1288 <task+0x7a8>
    1424:	80 91 26 01 	lds	r24, 0x0126	; 0x800126 <s_i_uv.3075>
    1428:	81 11       	cpse	r24, r1
    142a:	2e cf       	rjmp	.-420    	; 0x1288 <task+0x7a8>
    142c:	80 91 23 01 	lds	r24, 0x0123	; 0x800123 <s_i_sk_o.3087>
    1430:	81 11       	cpse	r24, r1
    1432:	03 c0       	rjmp	.+6      	; 0x143a <task+0x95a>
    1434:	91 e0       	ldi	r25, 0x01	; 1
    1436:	90 93 1d 01 	sts	0x011D, r25	; 0x80011d <s_o_pv_o.3101>
    143a:	90 91 22 01 	lds	r25, 0x0122	; 0x800122 <s_i_sa_g.3091>
    143e:	91 11       	cpse	r25, r1
    1440:	23 cf       	rjmp	.-442    	; 0x1288 <task+0x7a8>
    1442:	90 91 21 01 	lds	r25, 0x0121	; 0x800121 <s_i_sa_o.3095>
    1446:	99 23       	and	r25, r25
    1448:	09 f4       	brne	.+2      	; 0x144c <task+0x96c>
    144a:	1e cf       	rjmp	.-452    	; 0x1288 <task+0x7a8>
    144c:	90 91 24 01 	lds	r25, 0x0124	; 0x800124 <s_i_sk_g.3083>
    1450:	91 11       	cpse	r25, r1
    1452:	1a cf       	rjmp	.-460    	; 0x1288 <task+0x7a8>
    1454:	88 23       	and	r24, r24
    1456:	09 f4       	brne	.+2      	; 0x145a <task+0x97a>
    1458:	17 cf       	rjmp	.-466    	; 0x1288 <task+0x7a8>
    145a:	a0 90 13 01 	lds	r10, 0x0113	; 0x800113 <s_timer_fb.3066>
    145e:	b0 90 14 01 	lds	r11, 0x0114	; 0x800114 <s_timer_fb.3066+0x1>
    1462:	c0 90 15 01 	lds	r12, 0x0115	; 0x800115 <s_timer_fb.3066+0x2>
    1466:	d0 90 16 01 	lds	r13, 0x0116	; 0x800116 <s_timer_fb.3066+0x3>
    146a:	e0 90 17 01 	lds	r14, 0x0117	; 0x800117 <s_timer_fb.3066+0x4>
    146e:	f0 90 18 01 	lds	r15, 0x0118	; 0x800118 <s_timer_fb.3066+0x5>
    1472:	00 91 19 01 	lds	r16, 0x0119	; 0x800119 <s_timer_fb.3066+0x6>
    1476:	10 91 1a 01 	lds	r17, 0x011A	; 0x80011a <s_timer_fb.3066+0x7>
    147a:	95 01       	movw	r18, r10
    147c:	a6 01       	movw	r20, r12
    147e:	b7 01       	movw	r22, r14
    1480:	c8 01       	movw	r24, r16
    1482:	a0 e0       	ldi	r26, 0x00	; 0
    1484:	30 d3       	rcall	.+1632   	; 0x1ae6 <__cmpdi2_s8>
    1486:	09 f4       	brne	.+2      	; 0x148a <task+0x9aa>
    1488:	ff ce       	rjmp	.-514    	; 0x1288 <task+0x7a8>
    148a:	2a 81       	ldd	r18, Y+2	; 0x02
    148c:	3b 81       	ldd	r19, Y+3	; 0x03
    148e:	49 2d       	mov	r20, r9
    1490:	58 2d       	mov	r21, r8
    1492:	67 2d       	mov	r22, r7
    1494:	76 2d       	mov	r23, r6
    1496:	85 2d       	mov	r24, r5
    1498:	94 2d       	mov	r25, r4
    149a:	1c d3       	rcall	.+1592   	; 0x1ad4 <__cmpdi2>
    149c:	08 f4       	brcc	.+2      	; 0x14a0 <task+0x9c0>
    149e:	f4 ce       	rjmp	.-536    	; 0x1288 <task+0x7a8>
    14a0:	10 92 1c 01 	sts	0x011C, r1	; 0x80011c <s_o_m1.3102>
    14a4:	81 e0       	ldi	r24, 0x01	; 1
    14a6:	80 93 1b 01 	sts	0x011B, r24	; 0x80011b <s_o_m2.3103>
    14aa:	10 92 1d 01 	sts	0x011D, r1	; 0x80011d <s_o_pv_o.3101>
    14ae:	81 e2       	ldi	r24, 0x21	; 33
    14b0:	80 93 20 01 	sts	0x0120, r24	; 0x800120 <s_fsm_state.3068>
    14b4:	e9 ce       	rjmp	.-558    	; 0x1288 <task+0x7a8>
    14b6:	0f 90       	pop	r0
    14b8:	0f 90       	pop	r0
    14ba:	0f 90       	pop	r0
    14bc:	0f 90       	pop	r0
    14be:	df 91       	pop	r29
    14c0:	cf 91       	pop	r28
    14c2:	1f 91       	pop	r17
    14c4:	0f 91       	pop	r16
    14c6:	ff 90       	pop	r15
    14c8:	ef 90       	pop	r14
    14ca:	df 90       	pop	r13
    14cc:	cf 90       	pop	r12
    14ce:	bf 90       	pop	r11
    14d0:	af 90       	pop	r10
    14d2:	9f 90       	pop	r9
    14d4:	8f 90       	pop	r8
    14d6:	7f 90       	pop	r7
    14d8:	6f 90       	pop	r6
    14da:	5f 90       	pop	r5
    14dc:	4f 90       	pop	r4
    14de:	3f 90       	pop	r3
    14e0:	2f 90       	pop	r2
    14e2:	08 95       	ret

000014e4 <enter_sleep>:
    14e4:	88 0f       	add	r24, r24
    14e6:	81 60       	ori	r24, 0x01	; 1
    14e8:	83 bf       	out	0x33, r24	; 51
    14ea:	88 95       	sleep
    14ec:	83 b7       	in	r24, 0x33	; 51
    14ee:	8e 7f       	andi	r24, 0xFE	; 254
    14f0:	83 bf       	out	0x33, r24	; 51
    14f2:	08 95       	ret

000014f4 <main>:
    14f4:	8c e3       	ldi	r24, 0x3C	; 60
    14f6:	84 b9       	out	0x04, r24	; 4
    14f8:	83 ec       	ldi	r24, 0xC3	; 195
    14fa:	85 b9       	out	0x05, r24	; 5
    14fc:	88 e2       	ldi	r24, 0x28	; 40
    14fe:	87 b9       	out	0x07, r24	; 7
    1500:	80 e3       	ldi	r24, 0x30	; 48
    1502:	88 b9       	out	0x08, r24	; 8
    1504:	8a e0       	ldi	r24, 0x0A	; 10
    1506:	8a b9       	out	0x0a, r24	; 10
    1508:	87 ef       	ldi	r24, 0xF7	; 247
    150a:	8b b9       	out	0x0b, r24	; 11
    150c:	84 e0       	ldi	r24, 0x04	; 4
    150e:	80 93 6c 00 	sts	0x006C, r24	; 0x80006c <__TEXT_REGION_LENGTH__+0x7e006c>
    1512:	82 e0       	ldi	r24, 0x02	; 2
    1514:	8b bb       	out	0x1b, r24	; 27
    1516:	80 93 68 00 	sts	0x0068, r24	; 0x800068 <__TEXT_REGION_LENGTH__+0x7e0068>
    151a:	9f d0       	rcall	.+318    	; 0x165a <sysclk_init>
    151c:	8b ee       	ldi	r24, 0xEB	; 235
    151e:	80 93 64 00 	sts	0x0064, r24	; 0x800064 <__TEXT_REGION_LENGTH__+0x7e0064>
    1522:	61 e0       	ldi	r22, 0x01	; 1
    1524:	80 e0       	ldi	r24, 0x00	; 0
    1526:	b2 d0       	rcall	.+356    	; 0x168c <sysclk_enable_module>
    1528:	83 e0       	ldi	r24, 0x03	; 3
    152a:	80 93 7e 00 	sts	0x007E, r24	; 0x80007e <__TEXT_REGION_LENGTH__+0x7e007e>
    152e:	86 e8       	ldi	r24, 0x86	; 134
    1530:	80 93 7a 00 	sts	0x007A, r24	; 0x80007a <__TEXT_REGION_LENGTH__+0x7e007a>
    1534:	80 ec       	ldi	r24, 0xC0	; 192
    1536:	80 93 7c 00 	sts	0x007C, r24	; 0x80007c <__TEXT_REGION_LENGTH__+0x7e007c>
    153a:	80 91 7b 00 	lds	r24, 0x007B	; 0x80007b <__TEXT_REGION_LENGTH__+0x7e007b>
    153e:	88 7f       	andi	r24, 0xF8	; 248
    1540:	86 60       	ori	r24, 0x06	; 6
    1542:	80 93 7b 00 	sts	0x007B, r24	; 0x80007b <__TEXT_REGION_LENGTH__+0x7e007b>
    1546:	80 91 7a 00 	lds	r24, 0x007A	; 0x80007a <__TEXT_REGION_LENGTH__+0x7e007a>
    154a:	80 62       	ori	r24, 0x20	; 32
    154c:	80 93 7a 00 	sts	0x007A, r24	; 0x80007a <__TEXT_REGION_LENGTH__+0x7e007a>
    1550:	80 91 7a 00 	lds	r24, 0x007A	; 0x80007a <__TEXT_REGION_LENGTH__+0x7e007a>
    1554:	80 61       	ori	r24, 0x10	; 16
    1556:	80 93 7a 00 	sts	0x007A, r24	; 0x80007a <__TEXT_REGION_LENGTH__+0x7e007a>
    155a:	80 91 7a 00 	lds	r24, 0x007A	; 0x80007a <__TEXT_REGION_LENGTH__+0x7e007a>
    155e:	88 60       	ori	r24, 0x08	; 8
    1560:	80 93 7a 00 	sts	0x007A, r24	; 0x80007a <__TEXT_REGION_LENGTH__+0x7e007a>
    1564:	80 91 7a 00 	lds	r24, 0x007A	; 0x80007a <__TEXT_REGION_LENGTH__+0x7e007a>
    1568:	80 64       	ori	r24, 0x40	; 64
    156a:	80 93 7a 00 	sts	0x007A, r24	; 0x80007a <__TEXT_REGION_LENGTH__+0x7e007a>
    156e:	68 e0       	ldi	r22, 0x08	; 8
    1570:	80 e0       	ldi	r24, 0x00	; 0
    1572:	8c d0       	rcall	.+280    	; 0x168c <sysclk_enable_module>
    1574:	81 e0       	ldi	r24, 0x01	; 1
    1576:	80 93 80 00 	sts	0x0080, r24	; 0x800080 <__TEXT_REGION_LENGTH__+0x7e0080>
    157a:	91 e1       	ldi	r25, 0x11	; 17
    157c:	90 93 81 00 	sts	0x0081, r25	; 0x800081 <__TEXT_REGION_LENGTH__+0x7e0081>
    1580:	10 92 85 00 	sts	0x0085, r1	; 0x800085 <__TEXT_REGION_LENGTH__+0x7e0085>
    1584:	10 92 84 00 	sts	0x0084, r1	; 0x800084 <__TEXT_REGION_LENGTH__+0x7e0084>
    1588:	9f e0       	ldi	r25, 0x0F	; 15
    158a:	90 93 89 00 	sts	0x0089, r25	; 0x800089 <__TEXT_REGION_LENGTH__+0x7e0089>
    158e:	90 ea       	ldi	r25, 0xA0	; 160
    1590:	90 93 88 00 	sts	0x0088, r25	; 0x800088 <__TEXT_REGION_LENGTH__+0x7e0088>
    1594:	97 e2       	ldi	r25, 0x27	; 39
    1596:	96 bb       	out	0x16, r25	; 22
    1598:	80 93 6f 00 	sts	0x006F, r24	; 0x80006f <__TEXT_REGION_LENGTH__+0x7e006f>
    159c:	5d d0       	rcall	.+186    	; 0x1658 <board_init>
    159e:	84 b7       	in	r24, 0x34	; 52
    15a0:	80 93 40 01 	sts	0x0140, r24	; 0x800140 <g_resetCause>
    15a4:	98 2f       	mov	r25, r24
    15a6:	97 70       	andi	r25, 0x07	; 7
    15a8:	11 f4       	brne	.+4      	; 0x15ae <main+0xba>
    15aa:	81 11       	cpse	r24, r1
    15ac:	42 c0       	rjmp	.+132    	; 0x1632 <main+0x13e>
    15ae:	6b da       	rcall	.-2858   	; 0xa86 <cpu_irq_save>
    15b0:	10 92 3f 01 	sts	0x013F, r1	; 0x80013f <runmode>
    15b4:	10 92 78 01 	sts	0x0178, r1	; 0x800178 <g_timer_abs_msb>
    15b8:	10 92 79 01 	sts	0x0179, r1	; 0x800179 <g_timer_abs_msb+0x1>
    15bc:	10 92 7a 01 	sts	0x017A, r1	; 0x80017a <g_timer_abs_msb+0x2>
    15c0:	10 92 7b 01 	sts	0x017B, r1	; 0x80017b <g_timer_abs_msb+0x3>
    15c4:	10 92 7c 01 	sts	0x017C, r1	; 0x80017c <g_timer_abs_msb+0x4>
    15c8:	10 92 7d 01 	sts	0x017D, r1	; 0x80017d <g_timer_abs_msb+0x5>
    15cc:	10 92 7e 01 	sts	0x017E, r1	; 0x80017e <g_timer_abs_msb+0x6>
    15d0:	10 92 7f 01 	sts	0x017F, r1	; 0x80017f <g_timer_abs_msb+0x7>
    15d4:	10 92 77 01 	sts	0x0177, r1	; 0x800177 <g_adc_state>
    15d8:	10 92 73 01 	sts	0x0173, r1	; 0x800173 <g_adc_12v>
    15dc:	10 92 74 01 	sts	0x0174, r1	; 0x800174 <g_adc_12v+0x1>
    15e0:	10 92 75 01 	sts	0x0175, r1	; 0x800175 <g_adc_12v+0x2>
    15e4:	10 92 76 01 	sts	0x0176, r1	; 0x800176 <g_adc_12v+0x3>
    15e8:	10 92 72 01 	sts	0x0172, r1	; 0x800172 <g_adc_12v_1000+0x1>
    15ec:	10 92 71 01 	sts	0x0171, r1	; 0x800171 <g_adc_12v_1000>
    15f0:	10 92 70 01 	sts	0x0170, r1	; 0x800170 <g_adc_12v_under>
    15f4:	10 92 6c 01 	sts	0x016C, r1	; 0x80016c <g_adc_temp>
    15f8:	10 92 6d 01 	sts	0x016D, r1	; 0x80016d <g_adc_temp+0x1>
    15fc:	10 92 6e 01 	sts	0x016E, r1	; 0x80016e <g_adc_temp+0x2>
    1600:	10 92 6f 01 	sts	0x016F, r1	; 0x80016f <g_adc_temp+0x3>
    1604:	10 92 68 01 	sts	0x0168, r1	; 0x800168 <g_adc_temp_100>
    1608:	10 92 69 01 	sts	0x0169, r1	; 0x800169 <g_adc_temp_100+0x1>
    160c:	10 92 6a 01 	sts	0x016A, r1	; 0x80016a <g_adc_temp_100+0x2>
    1610:	10 92 6b 01 	sts	0x016B, r1	; 0x80016b <g_adc_temp_100+0x3>
    1614:	10 92 67 01 	sts	0x0167, r1	; 0x800167 <g_speed_over>
    1618:	95 e2       	ldi	r25, 0x25	; 37
    161a:	e2 e4       	ldi	r30, 0x42	; 66
    161c:	f1 e0       	ldi	r31, 0x01	; 1
    161e:	df 01       	movw	r26, r30
    1620:	1d 92       	st	X+, r1
    1622:	9a 95       	dec	r25
    1624:	e9 f7       	brne	.-6      	; 0x1620 <main+0x12c>
    1626:	10 92 41 01 	sts	0x0141, r1	; 0x800141 <g_SmartLCD_mode>
    162a:	10 92 40 01 	sts	0x0140, r1	; 0x800140 <g_resetCause>
    162e:	8f bf       	out	0x3f, r24	; 63
    1630:	02 c0       	rjmp	.+4      	; 0x1636 <main+0x142>
    1632:	0e 94 51 00 	call	0xa2	; 0xa2 <asm_break>
    1636:	34 da       	rcall	.-2968   	; 0xaa0 <eeprom_nvm_settings_read.part.2>
    1638:	78 94       	sei
    163a:	81 e0       	ldi	r24, 0x01	; 1
    163c:	80 93 3f 01 	sts	0x013F, r24	; 0x80013f <runmode>
    1640:	3b da       	rcall	.-2954   	; 0xab8 <get_abs_time_ms>
    1642:	4e da       	rcall	.-2916   	; 0xae0 <task>
    1644:	80 e0       	ldi	r24, 0x00	; 0
    1646:	4e df       	rcall	.-356    	; 0x14e4 <enter_sleep>
    1648:	80 91 67 01 	lds	r24, 0x0167	; 0x800167 <g_speed_over>
    164c:	88 23       	and	r24, r24
    164e:	11 f0       	breq	.+4      	; 0x1654 <main+0x160>
    1650:	5b 9a       	sbi	0x0b, 3	; 11
    1652:	f6 cf       	rjmp	.-20     	; 0x1640 <main+0x14c>
    1654:	5b 98       	cbi	0x0b, 3	; 11
    1656:	f4 cf       	rjmp	.-24     	; 0x1640 <main+0x14c>

00001658 <board_init>:
    1658:	08 95       	ret

0000165a <sysclk_init>:
    165a:	cf 93       	push	r28
    165c:	df 93       	push	r29
    165e:	1f 92       	push	r1
    1660:	cd b7       	in	r28, 0x3d	; 61
    1662:	de b7       	in	r29, 0x3e	; 62
    1664:	8f ef       	ldi	r24, 0xFF	; 255
    1666:	80 93 64 00 	sts	0x0064, r24	; 0x800064 <__TEXT_REGION_LENGTH__+0x7e0064>
    166a:	8f b7       	in	r24, 0x3f	; 63
    166c:	89 83       	std	Y+1, r24	; 0x01
    166e:	f8 94       	cli
    1670:	89 81       	ldd	r24, Y+1	; 0x01
    1672:	5f 93       	push	r21
    1674:	50 e8       	ldi	r21, 0x80	; 128
    1676:	50 93 61 00 	sts	0x0061, r21	; 0x800061 <__TEXT_REGION_LENGTH__+0x7e0061>
    167a:	50 e0       	ldi	r21, 0x00	; 0
    167c:	50 93 61 00 	sts	0x0061, r21	; 0x800061 <__TEXT_REGION_LENGTH__+0x7e0061>
    1680:	5f 91       	pop	r21
    1682:	8f bf       	out	0x3f, r24	; 63
    1684:	0f 90       	pop	r0
    1686:	df 91       	pop	r29
    1688:	cf 91       	pop	r28
    168a:	08 95       	ret

0000168c <sysclk_enable_module>:
    168c:	cf 93       	push	r28
    168e:	df 93       	push	r29
    1690:	1f 92       	push	r1
    1692:	cd b7       	in	r28, 0x3d	; 61
    1694:	de b7       	in	r29, 0x3e	; 62
    1696:	9f b7       	in	r25, 0x3f	; 63
    1698:	99 83       	std	Y+1, r25	; 0x01
    169a:	f8 94       	cli
    169c:	99 81       	ldd	r25, Y+1	; 0x01
    169e:	81 11       	cpse	r24, r1
    16a0:	06 c0       	rjmp	.+12     	; 0x16ae <sysclk_enable_module+0x22>
    16a2:	60 95       	com	r22
    16a4:	80 91 64 00 	lds	r24, 0x0064	; 0x800064 <__TEXT_REGION_LENGTH__+0x7e0064>
    16a8:	68 23       	and	r22, r24
    16aa:	60 93 64 00 	sts	0x0064, r22	; 0x800064 <__TEXT_REGION_LENGTH__+0x7e0064>
    16ae:	9f bf       	out	0x3f, r25	; 63
    16b0:	0f 90       	pop	r0
    16b2:	df 91       	pop	r29
    16b4:	cf 91       	pop	r28
    16b6:	08 95       	ret

000016b8 <__subsf3>:
    16b8:	50 58       	subi	r21, 0x80	; 128

000016ba <__addsf3>:
    16ba:	bb 27       	eor	r27, r27
    16bc:	aa 27       	eor	r26, r26
    16be:	0e d0       	rcall	.+28     	; 0x16dc <__addsf3x>
    16c0:	0d c1       	rjmp	.+538    	; 0x18dc <__fp_round>
    16c2:	fe d0       	rcall	.+508    	; 0x18c0 <__fp_pscA>
    16c4:	30 f0       	brcs	.+12     	; 0x16d2 <__addsf3+0x18>
    16c6:	03 d1       	rcall	.+518    	; 0x18ce <__fp_pscB>
    16c8:	20 f0       	brcs	.+8      	; 0x16d2 <__addsf3+0x18>
    16ca:	31 f4       	brne	.+12     	; 0x16d8 <__addsf3+0x1e>
    16cc:	9f 3f       	cpi	r25, 0xFF	; 255
    16ce:	11 f4       	brne	.+4      	; 0x16d4 <__addsf3+0x1a>
    16d0:	1e f4       	brtc	.+6      	; 0x16d8 <__addsf3+0x1e>
    16d2:	f3 c0       	rjmp	.+486    	; 0x18ba <__fp_nan>
    16d4:	0e f4       	brtc	.+2      	; 0x16d8 <__addsf3+0x1e>
    16d6:	e0 95       	com	r30
    16d8:	e7 fb       	bst	r30, 7
    16da:	e9 c0       	rjmp	.+466    	; 0x18ae <__fp_inf>

000016dc <__addsf3x>:
    16dc:	e9 2f       	mov	r30, r25
    16de:	0f d1       	rcall	.+542    	; 0x18fe <__fp_split3>
    16e0:	80 f3       	brcs	.-32     	; 0x16c2 <__addsf3+0x8>
    16e2:	ba 17       	cp	r27, r26
    16e4:	62 07       	cpc	r22, r18
    16e6:	73 07       	cpc	r23, r19
    16e8:	84 07       	cpc	r24, r20
    16ea:	95 07       	cpc	r25, r21
    16ec:	18 f0       	brcs	.+6      	; 0x16f4 <__addsf3x+0x18>
    16ee:	71 f4       	brne	.+28     	; 0x170c <__addsf3x+0x30>
    16f0:	9e f5       	brtc	.+102    	; 0x1758 <__addsf3x+0x7c>
    16f2:	27 c1       	rjmp	.+590    	; 0x1942 <__fp_zero>
    16f4:	0e f4       	brtc	.+2      	; 0x16f8 <__addsf3x+0x1c>
    16f6:	e0 95       	com	r30
    16f8:	0b 2e       	mov	r0, r27
    16fa:	ba 2f       	mov	r27, r26
    16fc:	a0 2d       	mov	r26, r0
    16fe:	0b 01       	movw	r0, r22
    1700:	b9 01       	movw	r22, r18
    1702:	90 01       	movw	r18, r0
    1704:	0c 01       	movw	r0, r24
    1706:	ca 01       	movw	r24, r20
    1708:	a0 01       	movw	r20, r0
    170a:	11 24       	eor	r1, r1
    170c:	ff 27       	eor	r31, r31
    170e:	59 1b       	sub	r21, r25
    1710:	99 f0       	breq	.+38     	; 0x1738 <__addsf3x+0x5c>
    1712:	59 3f       	cpi	r21, 0xF9	; 249
    1714:	50 f4       	brcc	.+20     	; 0x172a <__addsf3x+0x4e>
    1716:	50 3e       	cpi	r21, 0xE0	; 224
    1718:	68 f1       	brcs	.+90     	; 0x1774 <__addsf3x+0x98>
    171a:	1a 16       	cp	r1, r26
    171c:	f0 40       	sbci	r31, 0x00	; 0
    171e:	a2 2f       	mov	r26, r18
    1720:	23 2f       	mov	r18, r19
    1722:	34 2f       	mov	r19, r20
    1724:	44 27       	eor	r20, r20
    1726:	58 5f       	subi	r21, 0xF8	; 248
    1728:	f3 cf       	rjmp	.-26     	; 0x1710 <__addsf3x+0x34>
    172a:	46 95       	lsr	r20
    172c:	37 95       	ror	r19
    172e:	27 95       	ror	r18
    1730:	a7 95       	ror	r26
    1732:	f0 40       	sbci	r31, 0x00	; 0
    1734:	53 95       	inc	r21
    1736:	c9 f7       	brne	.-14     	; 0x172a <__addsf3x+0x4e>
    1738:	7e f4       	brtc	.+30     	; 0x1758 <__addsf3x+0x7c>
    173a:	1f 16       	cp	r1, r31
    173c:	ba 0b       	sbc	r27, r26
    173e:	62 0b       	sbc	r22, r18
    1740:	73 0b       	sbc	r23, r19
    1742:	84 0b       	sbc	r24, r20
    1744:	ba f0       	brmi	.+46     	; 0x1774 <__addsf3x+0x98>
    1746:	91 50       	subi	r25, 0x01	; 1
    1748:	a1 f0       	breq	.+40     	; 0x1772 <__addsf3x+0x96>
    174a:	ff 0f       	add	r31, r31
    174c:	bb 1f       	adc	r27, r27
    174e:	66 1f       	adc	r22, r22
    1750:	77 1f       	adc	r23, r23
    1752:	88 1f       	adc	r24, r24
    1754:	c2 f7       	brpl	.-16     	; 0x1746 <__addsf3x+0x6a>
    1756:	0e c0       	rjmp	.+28     	; 0x1774 <__addsf3x+0x98>
    1758:	ba 0f       	add	r27, r26
    175a:	62 1f       	adc	r22, r18
    175c:	73 1f       	adc	r23, r19
    175e:	84 1f       	adc	r24, r20
    1760:	48 f4       	brcc	.+18     	; 0x1774 <__addsf3x+0x98>
    1762:	87 95       	ror	r24
    1764:	77 95       	ror	r23
    1766:	67 95       	ror	r22
    1768:	b7 95       	ror	r27
    176a:	f7 95       	ror	r31
    176c:	9e 3f       	cpi	r25, 0xFE	; 254
    176e:	08 f0       	brcs	.+2      	; 0x1772 <__addsf3x+0x96>
    1770:	b3 cf       	rjmp	.-154    	; 0x16d8 <__addsf3+0x1e>
    1772:	93 95       	inc	r25
    1774:	88 0f       	add	r24, r24
    1776:	08 f0       	brcs	.+2      	; 0x177a <__addsf3x+0x9e>
    1778:	99 27       	eor	r25, r25
    177a:	ee 0f       	add	r30, r30
    177c:	97 95       	ror	r25
    177e:	87 95       	ror	r24
    1780:	08 95       	ret

00001782 <__cmpsf2>:
    1782:	71 d0       	rcall	.+226    	; 0x1866 <__fp_cmp>
    1784:	08 f4       	brcc	.+2      	; 0x1788 <__cmpsf2+0x6>
    1786:	81 e0       	ldi	r24, 0x01	; 1
    1788:	08 95       	ret

0000178a <__fixsfsi>:
    178a:	04 d0       	rcall	.+8      	; 0x1794 <__fixunssfsi>
    178c:	68 94       	set
    178e:	b1 11       	cpse	r27, r1
    1790:	d9 c0       	rjmp	.+434    	; 0x1944 <__fp_szero>
    1792:	08 95       	ret

00001794 <__fixunssfsi>:
    1794:	bc d0       	rcall	.+376    	; 0x190e <__fp_splitA>
    1796:	88 f0       	brcs	.+34     	; 0x17ba <__fixunssfsi+0x26>
    1798:	9f 57       	subi	r25, 0x7F	; 127
    179a:	90 f0       	brcs	.+36     	; 0x17c0 <__fixunssfsi+0x2c>
    179c:	b9 2f       	mov	r27, r25
    179e:	99 27       	eor	r25, r25
    17a0:	b7 51       	subi	r27, 0x17	; 23
    17a2:	a0 f0       	brcs	.+40     	; 0x17cc <__fixunssfsi+0x38>
    17a4:	d1 f0       	breq	.+52     	; 0x17da <__fixunssfsi+0x46>
    17a6:	66 0f       	add	r22, r22
    17a8:	77 1f       	adc	r23, r23
    17aa:	88 1f       	adc	r24, r24
    17ac:	99 1f       	adc	r25, r25
    17ae:	1a f0       	brmi	.+6      	; 0x17b6 <__fixunssfsi+0x22>
    17b0:	ba 95       	dec	r27
    17b2:	c9 f7       	brne	.-14     	; 0x17a6 <__fixunssfsi+0x12>
    17b4:	12 c0       	rjmp	.+36     	; 0x17da <__fixunssfsi+0x46>
    17b6:	b1 30       	cpi	r27, 0x01	; 1
    17b8:	81 f0       	breq	.+32     	; 0x17da <__fixunssfsi+0x46>
    17ba:	c3 d0       	rcall	.+390    	; 0x1942 <__fp_zero>
    17bc:	b1 e0       	ldi	r27, 0x01	; 1
    17be:	08 95       	ret
    17c0:	c0 c0       	rjmp	.+384    	; 0x1942 <__fp_zero>
    17c2:	67 2f       	mov	r22, r23
    17c4:	78 2f       	mov	r23, r24
    17c6:	88 27       	eor	r24, r24
    17c8:	b8 5f       	subi	r27, 0xF8	; 248
    17ca:	39 f0       	breq	.+14     	; 0x17da <__fixunssfsi+0x46>
    17cc:	b9 3f       	cpi	r27, 0xF9	; 249
    17ce:	cc f3       	brlt	.-14     	; 0x17c2 <__fixunssfsi+0x2e>
    17d0:	86 95       	lsr	r24
    17d2:	77 95       	ror	r23
    17d4:	67 95       	ror	r22
    17d6:	b3 95       	inc	r27
    17d8:	d9 f7       	brne	.-10     	; 0x17d0 <__fixunssfsi+0x3c>
    17da:	3e f4       	brtc	.+14     	; 0x17ea <__fixunssfsi+0x56>
    17dc:	90 95       	com	r25
    17de:	80 95       	com	r24
    17e0:	70 95       	com	r23
    17e2:	61 95       	neg	r22
    17e4:	7f 4f       	sbci	r23, 0xFF	; 255
    17e6:	8f 4f       	sbci	r24, 0xFF	; 255
    17e8:	9f 4f       	sbci	r25, 0xFF	; 255
    17ea:	08 95       	ret

000017ec <__floatunsisf>:
    17ec:	e8 94       	clt
    17ee:	09 c0       	rjmp	.+18     	; 0x1802 <__floatsisf+0x12>

000017f0 <__floatsisf>:
    17f0:	97 fb       	bst	r25, 7
    17f2:	3e f4       	brtc	.+14     	; 0x1802 <__floatsisf+0x12>
    17f4:	90 95       	com	r25
    17f6:	80 95       	com	r24
    17f8:	70 95       	com	r23
    17fa:	61 95       	neg	r22
    17fc:	7f 4f       	sbci	r23, 0xFF	; 255
    17fe:	8f 4f       	sbci	r24, 0xFF	; 255
    1800:	9f 4f       	sbci	r25, 0xFF	; 255
    1802:	99 23       	and	r25, r25
    1804:	a9 f0       	breq	.+42     	; 0x1830 <__floatsisf+0x40>
    1806:	f9 2f       	mov	r31, r25
    1808:	96 e9       	ldi	r25, 0x96	; 150
    180a:	bb 27       	eor	r27, r27
    180c:	93 95       	inc	r25
    180e:	f6 95       	lsr	r31
    1810:	87 95       	ror	r24
    1812:	77 95       	ror	r23
    1814:	67 95       	ror	r22
    1816:	b7 95       	ror	r27
    1818:	f1 11       	cpse	r31, r1
    181a:	f8 cf       	rjmp	.-16     	; 0x180c <__floatsisf+0x1c>
    181c:	fa f4       	brpl	.+62     	; 0x185c <__floatsisf+0x6c>
    181e:	bb 0f       	add	r27, r27
    1820:	11 f4       	brne	.+4      	; 0x1826 <__floatsisf+0x36>
    1822:	60 ff       	sbrs	r22, 0
    1824:	1b c0       	rjmp	.+54     	; 0x185c <__floatsisf+0x6c>
    1826:	6f 5f       	subi	r22, 0xFF	; 255
    1828:	7f 4f       	sbci	r23, 0xFF	; 255
    182a:	8f 4f       	sbci	r24, 0xFF	; 255
    182c:	9f 4f       	sbci	r25, 0xFF	; 255
    182e:	16 c0       	rjmp	.+44     	; 0x185c <__floatsisf+0x6c>
    1830:	88 23       	and	r24, r24
    1832:	11 f0       	breq	.+4      	; 0x1838 <__floatsisf+0x48>
    1834:	96 e9       	ldi	r25, 0x96	; 150
    1836:	11 c0       	rjmp	.+34     	; 0x185a <__floatsisf+0x6a>
    1838:	77 23       	and	r23, r23
    183a:	21 f0       	breq	.+8      	; 0x1844 <__floatsisf+0x54>
    183c:	9e e8       	ldi	r25, 0x8E	; 142
    183e:	87 2f       	mov	r24, r23
    1840:	76 2f       	mov	r23, r22
    1842:	05 c0       	rjmp	.+10     	; 0x184e <__floatsisf+0x5e>
    1844:	66 23       	and	r22, r22
    1846:	71 f0       	breq	.+28     	; 0x1864 <__floatsisf+0x74>
    1848:	96 e8       	ldi	r25, 0x86	; 134
    184a:	86 2f       	mov	r24, r22
    184c:	70 e0       	ldi	r23, 0x00	; 0
    184e:	60 e0       	ldi	r22, 0x00	; 0
    1850:	2a f0       	brmi	.+10     	; 0x185c <__floatsisf+0x6c>
    1852:	9a 95       	dec	r25
    1854:	66 0f       	add	r22, r22
    1856:	77 1f       	adc	r23, r23
    1858:	88 1f       	adc	r24, r24
    185a:	da f7       	brpl	.-10     	; 0x1852 <__floatsisf+0x62>
    185c:	88 0f       	add	r24, r24
    185e:	96 95       	lsr	r25
    1860:	87 95       	ror	r24
    1862:	97 f9       	bld	r25, 7
    1864:	08 95       	ret

00001866 <__fp_cmp>:
    1866:	99 0f       	add	r25, r25
    1868:	00 08       	sbc	r0, r0
    186a:	55 0f       	add	r21, r21
    186c:	aa 0b       	sbc	r26, r26
    186e:	e0 e8       	ldi	r30, 0x80	; 128
    1870:	fe ef       	ldi	r31, 0xFE	; 254
    1872:	16 16       	cp	r1, r22
    1874:	17 06       	cpc	r1, r23
    1876:	e8 07       	cpc	r30, r24
    1878:	f9 07       	cpc	r31, r25
    187a:	c0 f0       	brcs	.+48     	; 0x18ac <__fp_cmp+0x46>
    187c:	12 16       	cp	r1, r18
    187e:	13 06       	cpc	r1, r19
    1880:	e4 07       	cpc	r30, r20
    1882:	f5 07       	cpc	r31, r21
    1884:	98 f0       	brcs	.+38     	; 0x18ac <__fp_cmp+0x46>
    1886:	62 1b       	sub	r22, r18
    1888:	73 0b       	sbc	r23, r19
    188a:	84 0b       	sbc	r24, r20
    188c:	95 0b       	sbc	r25, r21
    188e:	39 f4       	brne	.+14     	; 0x189e <__fp_cmp+0x38>
    1890:	0a 26       	eor	r0, r26
    1892:	61 f0       	breq	.+24     	; 0x18ac <__fp_cmp+0x46>
    1894:	23 2b       	or	r18, r19
    1896:	24 2b       	or	r18, r20
    1898:	25 2b       	or	r18, r21
    189a:	21 f4       	brne	.+8      	; 0x18a4 <__fp_cmp+0x3e>
    189c:	08 95       	ret
    189e:	0a 26       	eor	r0, r26
    18a0:	09 f4       	brne	.+2      	; 0x18a4 <__fp_cmp+0x3e>
    18a2:	a1 40       	sbci	r26, 0x01	; 1
    18a4:	a6 95       	lsr	r26
    18a6:	8f ef       	ldi	r24, 0xFF	; 255
    18a8:	81 1d       	adc	r24, r1
    18aa:	81 1d       	adc	r24, r1
    18ac:	08 95       	ret

000018ae <__fp_inf>:
    18ae:	97 f9       	bld	r25, 7
    18b0:	9f 67       	ori	r25, 0x7F	; 127
    18b2:	80 e8       	ldi	r24, 0x80	; 128
    18b4:	70 e0       	ldi	r23, 0x00	; 0
    18b6:	60 e0       	ldi	r22, 0x00	; 0
    18b8:	08 95       	ret

000018ba <__fp_nan>:
    18ba:	9f ef       	ldi	r25, 0xFF	; 255
    18bc:	80 ec       	ldi	r24, 0xC0	; 192
    18be:	08 95       	ret

000018c0 <__fp_pscA>:
    18c0:	00 24       	eor	r0, r0
    18c2:	0a 94       	dec	r0
    18c4:	16 16       	cp	r1, r22
    18c6:	17 06       	cpc	r1, r23
    18c8:	18 06       	cpc	r1, r24
    18ca:	09 06       	cpc	r0, r25
    18cc:	08 95       	ret

000018ce <__fp_pscB>:
    18ce:	00 24       	eor	r0, r0
    18d0:	0a 94       	dec	r0
    18d2:	12 16       	cp	r1, r18
    18d4:	13 06       	cpc	r1, r19
    18d6:	14 06       	cpc	r1, r20
    18d8:	05 06       	cpc	r0, r21
    18da:	08 95       	ret

000018dc <__fp_round>:
    18dc:	09 2e       	mov	r0, r25
    18de:	03 94       	inc	r0
    18e0:	00 0c       	add	r0, r0
    18e2:	11 f4       	brne	.+4      	; 0x18e8 <__fp_round+0xc>
    18e4:	88 23       	and	r24, r24
    18e6:	52 f0       	brmi	.+20     	; 0x18fc <__fp_round+0x20>
    18e8:	bb 0f       	add	r27, r27
    18ea:	40 f4       	brcc	.+16     	; 0x18fc <__fp_round+0x20>
    18ec:	bf 2b       	or	r27, r31
    18ee:	11 f4       	brne	.+4      	; 0x18f4 <__fp_round+0x18>
    18f0:	60 ff       	sbrs	r22, 0
    18f2:	04 c0       	rjmp	.+8      	; 0x18fc <__fp_round+0x20>
    18f4:	6f 5f       	subi	r22, 0xFF	; 255
    18f6:	7f 4f       	sbci	r23, 0xFF	; 255
    18f8:	8f 4f       	sbci	r24, 0xFF	; 255
    18fa:	9f 4f       	sbci	r25, 0xFF	; 255
    18fc:	08 95       	ret

000018fe <__fp_split3>:
    18fe:	57 fd       	sbrc	r21, 7
    1900:	90 58       	subi	r25, 0x80	; 128
    1902:	44 0f       	add	r20, r20
    1904:	55 1f       	adc	r21, r21
    1906:	59 f0       	breq	.+22     	; 0x191e <__fp_splitA+0x10>
    1908:	5f 3f       	cpi	r21, 0xFF	; 255
    190a:	71 f0       	breq	.+28     	; 0x1928 <__fp_splitA+0x1a>
    190c:	47 95       	ror	r20

0000190e <__fp_splitA>:
    190e:	88 0f       	add	r24, r24
    1910:	97 fb       	bst	r25, 7
    1912:	99 1f       	adc	r25, r25
    1914:	61 f0       	breq	.+24     	; 0x192e <__fp_splitA+0x20>
    1916:	9f 3f       	cpi	r25, 0xFF	; 255
    1918:	79 f0       	breq	.+30     	; 0x1938 <__fp_splitA+0x2a>
    191a:	87 95       	ror	r24
    191c:	08 95       	ret
    191e:	12 16       	cp	r1, r18
    1920:	13 06       	cpc	r1, r19
    1922:	14 06       	cpc	r1, r20
    1924:	55 1f       	adc	r21, r21
    1926:	f2 cf       	rjmp	.-28     	; 0x190c <__fp_split3+0xe>
    1928:	46 95       	lsr	r20
    192a:	f1 df       	rcall	.-30     	; 0x190e <__fp_splitA>
    192c:	08 c0       	rjmp	.+16     	; 0x193e <__fp_splitA+0x30>
    192e:	16 16       	cp	r1, r22
    1930:	17 06       	cpc	r1, r23
    1932:	18 06       	cpc	r1, r24
    1934:	99 1f       	adc	r25, r25
    1936:	f1 cf       	rjmp	.-30     	; 0x191a <__fp_splitA+0xc>
    1938:	86 95       	lsr	r24
    193a:	71 05       	cpc	r23, r1
    193c:	61 05       	cpc	r22, r1
    193e:	08 94       	sec
    1940:	08 95       	ret

00001942 <__fp_zero>:
    1942:	e8 94       	clt

00001944 <__fp_szero>:
    1944:	bb 27       	eor	r27, r27
    1946:	66 27       	eor	r22, r22
    1948:	77 27       	eor	r23, r23
    194a:	cb 01       	movw	r24, r22
    194c:	97 f9       	bld	r25, 7
    194e:	08 95       	ret

00001950 <__mulsf3>:
    1950:	0b d0       	rcall	.+22     	; 0x1968 <__mulsf3x>
    1952:	c4 cf       	rjmp	.-120    	; 0x18dc <__fp_round>
    1954:	b5 df       	rcall	.-150    	; 0x18c0 <__fp_pscA>
    1956:	28 f0       	brcs	.+10     	; 0x1962 <__mulsf3+0x12>
    1958:	ba df       	rcall	.-140    	; 0x18ce <__fp_pscB>
    195a:	18 f0       	brcs	.+6      	; 0x1962 <__mulsf3+0x12>
    195c:	95 23       	and	r25, r21
    195e:	09 f0       	breq	.+2      	; 0x1962 <__mulsf3+0x12>
    1960:	a6 cf       	rjmp	.-180    	; 0x18ae <__fp_inf>
    1962:	ab cf       	rjmp	.-170    	; 0x18ba <__fp_nan>
    1964:	11 24       	eor	r1, r1
    1966:	ee cf       	rjmp	.-36     	; 0x1944 <__fp_szero>

00001968 <__mulsf3x>:
    1968:	ca df       	rcall	.-108    	; 0x18fe <__fp_split3>
    196a:	a0 f3       	brcs	.-24     	; 0x1954 <__mulsf3+0x4>

0000196c <__mulsf3_pse>:
    196c:	95 9f       	mul	r25, r21
    196e:	d1 f3       	breq	.-12     	; 0x1964 <__mulsf3+0x14>
    1970:	95 0f       	add	r25, r21
    1972:	50 e0       	ldi	r21, 0x00	; 0
    1974:	55 1f       	adc	r21, r21
    1976:	62 9f       	mul	r22, r18
    1978:	f0 01       	movw	r30, r0
    197a:	72 9f       	mul	r23, r18
    197c:	bb 27       	eor	r27, r27
    197e:	f0 0d       	add	r31, r0
    1980:	b1 1d       	adc	r27, r1
    1982:	63 9f       	mul	r22, r19
    1984:	aa 27       	eor	r26, r26
    1986:	f0 0d       	add	r31, r0
    1988:	b1 1d       	adc	r27, r1
    198a:	aa 1f       	adc	r26, r26
    198c:	64 9f       	mul	r22, r20
    198e:	66 27       	eor	r22, r22
    1990:	b0 0d       	add	r27, r0
    1992:	a1 1d       	adc	r26, r1
    1994:	66 1f       	adc	r22, r22
    1996:	82 9f       	mul	r24, r18
    1998:	22 27       	eor	r18, r18
    199a:	b0 0d       	add	r27, r0
    199c:	a1 1d       	adc	r26, r1
    199e:	62 1f       	adc	r22, r18
    19a0:	73 9f       	mul	r23, r19
    19a2:	b0 0d       	add	r27, r0
    19a4:	a1 1d       	adc	r26, r1
    19a6:	62 1f       	adc	r22, r18
    19a8:	83 9f       	mul	r24, r19
    19aa:	a0 0d       	add	r26, r0
    19ac:	61 1d       	adc	r22, r1
    19ae:	22 1f       	adc	r18, r18
    19b0:	74 9f       	mul	r23, r20
    19b2:	33 27       	eor	r19, r19
    19b4:	a0 0d       	add	r26, r0
    19b6:	61 1d       	adc	r22, r1
    19b8:	23 1f       	adc	r18, r19
    19ba:	84 9f       	mul	r24, r20
    19bc:	60 0d       	add	r22, r0
    19be:	21 1d       	adc	r18, r1
    19c0:	82 2f       	mov	r24, r18
    19c2:	76 2f       	mov	r23, r22
    19c4:	6a 2f       	mov	r22, r26
    19c6:	11 24       	eor	r1, r1
    19c8:	9f 57       	subi	r25, 0x7F	; 127
    19ca:	50 40       	sbci	r21, 0x00	; 0
    19cc:	8a f0       	brmi	.+34     	; 0x19f0 <__mulsf3_pse+0x84>
    19ce:	e1 f0       	breq	.+56     	; 0x1a08 <__mulsf3_pse+0x9c>
    19d0:	88 23       	and	r24, r24
    19d2:	4a f0       	brmi	.+18     	; 0x19e6 <__mulsf3_pse+0x7a>
    19d4:	ee 0f       	add	r30, r30
    19d6:	ff 1f       	adc	r31, r31
    19d8:	bb 1f       	adc	r27, r27
    19da:	66 1f       	adc	r22, r22
    19dc:	77 1f       	adc	r23, r23
    19de:	88 1f       	adc	r24, r24
    19e0:	91 50       	subi	r25, 0x01	; 1
    19e2:	50 40       	sbci	r21, 0x00	; 0
    19e4:	a9 f7       	brne	.-22     	; 0x19d0 <__mulsf3_pse+0x64>
    19e6:	9e 3f       	cpi	r25, 0xFE	; 254
    19e8:	51 05       	cpc	r21, r1
    19ea:	70 f0       	brcs	.+28     	; 0x1a08 <__mulsf3_pse+0x9c>
    19ec:	60 cf       	rjmp	.-320    	; 0x18ae <__fp_inf>
    19ee:	aa cf       	rjmp	.-172    	; 0x1944 <__fp_szero>
    19f0:	5f 3f       	cpi	r21, 0xFF	; 255
    19f2:	ec f3       	brlt	.-6      	; 0x19ee <__mulsf3_pse+0x82>
    19f4:	98 3e       	cpi	r25, 0xE8	; 232
    19f6:	dc f3       	brlt	.-10     	; 0x19ee <__mulsf3_pse+0x82>
    19f8:	86 95       	lsr	r24
    19fa:	77 95       	ror	r23
    19fc:	67 95       	ror	r22
    19fe:	b7 95       	ror	r27
    1a00:	f7 95       	ror	r31
    1a02:	e7 95       	ror	r30
    1a04:	9f 5f       	subi	r25, 0xFF	; 255
    1a06:	c1 f7       	brne	.-16     	; 0x19f8 <__mulsf3_pse+0x8c>
    1a08:	fe 2b       	or	r31, r30
    1a0a:	88 0f       	add	r24, r24
    1a0c:	91 1d       	adc	r25, r1
    1a0e:	96 95       	lsr	r25
    1a10:	87 95       	ror	r24
    1a12:	97 f9       	bld	r25, 7
    1a14:	08 95       	ret

00001a16 <__mulsi3>:
    1a16:	db 01       	movw	r26, r22
    1a18:	8f 93       	push	r24
    1a1a:	9f 93       	push	r25
    1a1c:	3c d0       	rcall	.+120    	; 0x1a96 <__muluhisi3>
    1a1e:	bf 91       	pop	r27
    1a20:	af 91       	pop	r26
    1a22:	a2 9f       	mul	r26, r18
    1a24:	80 0d       	add	r24, r0
    1a26:	91 1d       	adc	r25, r1
    1a28:	a3 9f       	mul	r26, r19
    1a2a:	90 0d       	add	r25, r0
    1a2c:	b2 9f       	mul	r27, r18
    1a2e:	90 0d       	add	r25, r0
    1a30:	11 24       	eor	r1, r1
    1a32:	08 95       	ret

00001a34 <__udivmodsi4>:
    1a34:	a1 e2       	ldi	r26, 0x21	; 33
    1a36:	1a 2e       	mov	r1, r26
    1a38:	aa 1b       	sub	r26, r26
    1a3a:	bb 1b       	sub	r27, r27
    1a3c:	fd 01       	movw	r30, r26
    1a3e:	0d c0       	rjmp	.+26     	; 0x1a5a <__udivmodsi4_ep>

00001a40 <__udivmodsi4_loop>:
    1a40:	aa 1f       	adc	r26, r26
    1a42:	bb 1f       	adc	r27, r27
    1a44:	ee 1f       	adc	r30, r30
    1a46:	ff 1f       	adc	r31, r31
    1a48:	a2 17       	cp	r26, r18
    1a4a:	b3 07       	cpc	r27, r19
    1a4c:	e4 07       	cpc	r30, r20
    1a4e:	f5 07       	cpc	r31, r21
    1a50:	20 f0       	brcs	.+8      	; 0x1a5a <__udivmodsi4_ep>
    1a52:	a2 1b       	sub	r26, r18
    1a54:	b3 0b       	sbc	r27, r19
    1a56:	e4 0b       	sbc	r30, r20
    1a58:	f5 0b       	sbc	r31, r21

00001a5a <__udivmodsi4_ep>:
    1a5a:	66 1f       	adc	r22, r22
    1a5c:	77 1f       	adc	r23, r23
    1a5e:	88 1f       	adc	r24, r24
    1a60:	99 1f       	adc	r25, r25
    1a62:	1a 94       	dec	r1
    1a64:	69 f7       	brne	.-38     	; 0x1a40 <__udivmodsi4_loop>
    1a66:	60 95       	com	r22
    1a68:	70 95       	com	r23
    1a6a:	80 95       	com	r24
    1a6c:	90 95       	com	r25
    1a6e:	9b 01       	movw	r18, r22
    1a70:	ac 01       	movw	r20, r24
    1a72:	bd 01       	movw	r22, r26
    1a74:	cf 01       	movw	r24, r30
    1a76:	08 95       	ret

00001a78 <__umulhisi3>:
    1a78:	a2 9f       	mul	r26, r18
    1a7a:	b0 01       	movw	r22, r0
    1a7c:	b3 9f       	mul	r27, r19
    1a7e:	c0 01       	movw	r24, r0
    1a80:	a3 9f       	mul	r26, r19
    1a82:	70 0d       	add	r23, r0
    1a84:	81 1d       	adc	r24, r1
    1a86:	11 24       	eor	r1, r1
    1a88:	91 1d       	adc	r25, r1
    1a8a:	b2 9f       	mul	r27, r18
    1a8c:	70 0d       	add	r23, r0
    1a8e:	81 1d       	adc	r24, r1
    1a90:	11 24       	eor	r1, r1
    1a92:	91 1d       	adc	r25, r1
    1a94:	08 95       	ret

00001a96 <__muluhisi3>:
    1a96:	f0 df       	rcall	.-32     	; 0x1a78 <__umulhisi3>
    1a98:	a5 9f       	mul	r26, r21
    1a9a:	90 0d       	add	r25, r0
    1a9c:	b4 9f       	mul	r27, r20
    1a9e:	90 0d       	add	r25, r0
    1aa0:	a4 9f       	mul	r26, r20
    1aa2:	80 0d       	add	r24, r0
    1aa4:	91 1d       	adc	r25, r1
    1aa6:	11 24       	eor	r1, r1
    1aa8:	08 95       	ret

00001aaa <__adddi3_s8>:
    1aaa:	00 24       	eor	r0, r0
    1aac:	a7 fd       	sbrc	r26, 7
    1aae:	00 94       	com	r0
    1ab0:	2a 0f       	add	r18, r26
    1ab2:	30 1d       	adc	r19, r0
    1ab4:	40 1d       	adc	r20, r0
    1ab6:	50 1d       	adc	r21, r0
    1ab8:	60 1d       	adc	r22, r0
    1aba:	70 1d       	adc	r23, r0
    1abc:	80 1d       	adc	r24, r0
    1abe:	90 1d       	adc	r25, r0
    1ac0:	08 95       	ret

00001ac2 <__subdi3>:
    1ac2:	2a 19       	sub	r18, r10
    1ac4:	3b 09       	sbc	r19, r11
    1ac6:	4c 09       	sbc	r20, r12
    1ac8:	5d 09       	sbc	r21, r13
    1aca:	6e 09       	sbc	r22, r14
    1acc:	7f 09       	sbc	r23, r15
    1ace:	80 0b       	sbc	r24, r16
    1ad0:	91 0b       	sbc	r25, r17
    1ad2:	08 95       	ret

00001ad4 <__cmpdi2>:
    1ad4:	2a 15       	cp	r18, r10
    1ad6:	3b 05       	cpc	r19, r11
    1ad8:	4c 05       	cpc	r20, r12
    1ada:	5d 05       	cpc	r21, r13
    1adc:	6e 05       	cpc	r22, r14
    1ade:	7f 05       	cpc	r23, r15
    1ae0:	80 07       	cpc	r24, r16
    1ae2:	91 07       	cpc	r25, r17
    1ae4:	08 95       	ret

00001ae6 <__cmpdi2_s8>:
    1ae6:	00 24       	eor	r0, r0
    1ae8:	a7 fd       	sbrc	r26, 7
    1aea:	00 94       	com	r0
    1aec:	2a 17       	cp	r18, r26
    1aee:	30 05       	cpc	r19, r0
    1af0:	40 05       	cpc	r20, r0
    1af2:	50 05       	cpc	r21, r0
    1af4:	60 05       	cpc	r22, r0
    1af6:	70 05       	cpc	r23, r0
    1af8:	80 05       	cpc	r24, r0
    1afa:	90 05       	cpc	r25, r0
    1afc:	08 95       	ret

00001afe <eeprom_read_byte>:
    1afe:	f9 99       	sbic	0x1f, 1	; 31
    1b00:	fe cf       	rjmp	.-4      	; 0x1afe <eeprom_read_byte>
    1b02:	92 bd       	out	0x22, r25	; 34
    1b04:	81 bd       	out	0x21, r24	; 33
    1b06:	f8 9a       	sbi	0x1f, 0	; 31
    1b08:	99 27       	eor	r25, r25
    1b0a:	80 b5       	in	r24, 0x20	; 32
    1b0c:	08 95       	ret

00001b0e <eeprom_write_byte>:
    1b0e:	26 2f       	mov	r18, r22

00001b10 <eeprom_write_r18>:
    1b10:	f9 99       	sbic	0x1f, 1	; 31
    1b12:	fe cf       	rjmp	.-4      	; 0x1b10 <eeprom_write_r18>
    1b14:	1f ba       	out	0x1f, r1	; 31
    1b16:	92 bd       	out	0x22, r25	; 34
    1b18:	81 bd       	out	0x21, r24	; 33
    1b1a:	20 bd       	out	0x20, r18	; 32
    1b1c:	0f b6       	in	r0, 0x3f	; 63
    1b1e:	f8 94       	cli
    1b20:	fa 9a       	sbi	0x1f, 2	; 31
    1b22:	f9 9a       	sbi	0x1f, 1	; 31
    1b24:	0f be       	out	0x3f, r0	; 63
    1b26:	01 96       	adiw	r24, 0x01	; 1
    1b28:	08 95       	ret

00001b2a <_exit>:
    1b2a:	f8 94       	cli

00001b2c <__stop_program>:
    1b2c:	ff cf       	rjmp	.-2      	; 0x1b2c <__stop_program>
